(lp1
S'dogs'
p2
aS'live'
p3
aS'.'
aS'Mary'
p4
aS'sees'
p5
aS'.'
aS'John'
p6
aS'lives'
p7
aS'.'
aS'girl'
p8
aS'hears'
p9
aS'.'
aS'dog'
p10
ag9
aS'.'
aS'cat'
p11
aS'walks'
p12
aS'.'
ag2
aS'see'
p13
aS'.'
ag10
ag12
aS'.'
aS'boy'
p14
ag12
aS'.'
ag10
ag12
aS'.'
ag10
ag9
aS'.'
ag8
ag9
aS'.'
ag2
ag3
aS'.'
ag11
ag12
aS'.'
ag6
ag5
aS'.'
ag6
ag5
aS'.'
ag4
ag7
aS'.'
ag10
ag12
aS'.'
ag2
ag3
aS'.'
ag10
ag5
aS'.'
ag8
ag12
aS'.'
ag4
ag7
aS'.'
aS'cats'
p15
aS'hear'
p16
aS'.'
ag11
ag9
aS'.'
ag8
ag9
aS'.'
ag8
ag7
aS'.'
ag6
ag7
aS'.'
ag2
aS'walk'
p17
aS'.'
ag2
ag16
aS'.'
ag2
ag13
aS'.'
aS'girls'
p18
ag3
aS'.'
ag18
ag13
aS'.'
ag15
ag17
aS'.'
ag4
ag7
aS'.'
ag11
ag9
aS'.'
ag14
ag12
aS'.'
ag8
ag12
aS'.'
ag15
ag16
aS'.'
ag2
ag3
aS'.'
ag14
ag7
aS'.'
ag8
ag7
aS'.'
ag18
ag13
aS'.'
ag4
ag12
aS'.'
ag6
ag5
aS'.'
ag11
ag7
aS'.'
ag14
ag9
aS'.'
ag8
ag12
aS'.'
ag15
ag3
aS'.'
ag8
ag12
aS'.'
ag8
ag5
aS'.'
aS'boys'
p19
ag13
aS'.'
ag15
ag3
aS'.'
ag14
ag7
aS'.'
ag10
ag7
aS'.'
ag18
ag13
aS'.'
ag11
ag5
aS'.'
ag19
ag17
aS'.'
ag11
ag9
aS'.'
ag11
ag12
aS'.'
ag8
ag7
aS'.'
ag4
ag5
aS'.'
ag10
ag12
aS'.'
ag4
ag5
aS'.'
ag11
ag5
aS'.'
ag8
ag9
aS'.'
ag4
ag12
aS'.'
ag18
ag3
aS'.'
ag19
ag16
aS'.'
ag10
ag9
aS'.'
ag10
ag5
aS'.'
ag6
ag9
aS'.'
ag8
ag9
aS'.'
ag14
ag5
aS'.'
ag18
ag16
aS'.'
ag6
ag5
aS'.'
ag18
ag17
aS'.'
ag6
ag9
aS'.'
ag4
ag5
aS'.'
ag4
ag7
aS'.'
ag14
ag5
aS'.'
ag18
ag16
aS'.'
ag10
ag9
aS'.'
ag4
ag12
aS'.'
ag19
ag16
aS'.'
ag6
ag5
aS'.'
ag10
ag7
aS'.'
ag2
ag17
aS'.'
ag4
ag5
aS'.'
ag10
ag9
aS'.'
ag18
ag17
aS'.'
ag14
ag9
aS'.'
ag19
ag16
aS'.'
ag19
ag3
aS'.'
ag8
ag7
aS'.'
ag15
ag13
aS'.'
ag11
ag7
aS'.'
ag6
ag12
aS'.'
ag8
ag9
aS'.'
ag14
ag9
aS'.'
ag11
ag5
aS'.'
ag15
ag13
aS'.'
ag15
ag3
aS'.'
ag11
ag9
aS'.'
ag10
ag9
aS'.'
ag8
ag5
aS'.'
ag10
ag12
aS'.'
ag2
ag16
aS'.'
ag11
ag12
aS'.'
ag19
ag17
aS'.'
ag4
ag9
aS'.'
ag14
ag7
aS'.'
ag2
ag16
aS'.'
ag14
ag7
aS'.'
ag11
ag7
aS'.'
ag2
ag17
aS'.'
ag10
ag5
aS'.'
ag11
ag5
aS'.'
ag6
ag7
aS'.'
ag19
ag17
aS'.'
ag4
ag12
aS'.'
ag15
ag13
aS'.'
ag19
ag17
aS'.'
ag14
ag5
aS'.'
ag18
ag16
aS'.'
ag11
ag7
aS'.'
ag2
ag17
aS'.'
ag11
ag7
aS'.'
ag14
ag7
aS'.'
ag6
ag5
aS'.'
ag8
ag9
aS'.'
ag4
ag12
aS'.'
ag14
ag12
aS'.'
ag8
ag7
aS'.'
ag4
ag12
aS'.'
ag15
ag3
aS'.'
ag10
ag9
aS'.'
ag11
ag5
aS'.'
ag4
ag9
aS'.'
ag18
ag3
aS'.'
ag8
ag7
aS'.'
ag15
ag3
aS'.'
ag2
ag3
aS'.'
ag8
ag5
aS'.'
ag6
ag9
aS'.'
ag18
ag17
aS'.'
ag14
ag9
aS'.'
ag11
ag9
aS'.'
ag4
ag5
aS'.'
ag8
ag5
aS'.'
ag14
ag5
aS'.'
ag11
aS'feeds'
p20
ag4
aS'.'
ag10
aS'hits'
p21
ag10
aS'.'
ag14
ag5
ag6
aS'.'
ag19
aS'feed'
p22
ag6
aS'.'
ag18
aS'hit'
p23
ag8
aS'.'
ag14
ag20
ag14
aS'.'
ag18
ag13
ag15
aS'.'
ag19
ag13
ag4
aS'.'
ag4
ag9
ag10
aS'.'
ag18
ag23
ag11
aS'.'
ag10
ag5
ag4
aS'.'
ag8
ag9
ag18
aS'.'
ag11
ag21
ag18
aS'.'
ag18
ag13
ag2
aS'.'
ag8
ag5
ag10
aS'.'
ag10
ag9
ag4
aS'.'
ag14
ag5
ag2
aS'.'
ag11
ag9
ag2
aS'.'
ag18
ag22
ag15
aS'.'
ag6
ag20
ag8
aS'.'
ag15
ag13
ag10
aS'.'
ag2
ag13
ag19
aS'.'
ag10
ag21
ag19
aS'.'
ag15
ag23
ag8
aS'.'
ag2
ag16
ag19
aS'.'
ag19
ag13
ag10
aS'.'
ag8
ag20
ag4
aS'.'
ag8
ag21
ag19
aS'.'
ag19
ag23
ag14
aS'.'
ag10
ag9
ag11
aS'.'
ag14
ag20
ag8
aS'.'
ag14
ag5
ag10
aS'.'
ag2
ag22
ag10
aS'.'
ag6
ag5
ag11
aS'.'
ag4
ag9
ag8
aS'.'
ag18
ag13
ag18
aS'.'
ag8
ag21
ag10
aS'.'
ag4
ag9
ag19
aS'.'
ag18
ag13
ag11
aS'.'
ag2
ag23
ag2
aS'.'
ag10
ag20
ag8
aS'.'
ag6
ag21
ag8
aS'.'
ag4
ag9
ag19
aS'.'
ag10
ag9
ag14
aS'.'
ag14
ag20
ag15
aS'.'
ag19
ag23
ag8
aS'.'
ag4
ag5
ag4
aS'.'
ag8
ag21
ag11
aS'.'
ag10
ag20
ag18
aS'.'
ag15
ag23
ag19
aS'.'
ag4
ag9
ag14
aS'.'
ag15
ag22
ag18
aS'.'
ag18
ag22
ag8
aS'.'
ag10
ag9
ag8
aS'.'
ag6
ag9
ag10
aS'.'
ag11
ag9
ag8
aS'.'
ag15
ag16
ag19
aS'.'
ag11
ag21
ag10
aS'.'
ag19
ag22
ag19
aS'.'
ag14
ag9
ag19
aS'.'
ag14
ag20
ag6
aS'.'
ag18
ag13
ag4
aS'.'
ag6
ag9
ag18
aS'.'
ag6
ag9
ag14
aS'.'
ag18
ag23
ag18
aS'.'
ag2
ag23
ag19
aS'.'
ag15
ag22
ag11
aS'.'
ag11
ag21
ag8
aS'.'
ag15
ag16
ag4
aS'.'
ag18
ag23
ag15
aS'.'
ag4
ag21
ag8
aS'.'
ag2
ag22
ag14
aS'.'
ag14
ag20
ag14
aS'.'
ag15
ag22
ag19
aS'.'
ag15
ag13
ag6
aS'.'
ag6
ag21
ag4
aS'.'
ag8
ag5
ag2
aS'.'
ag14
ag5
ag6
aS'.'
ag14
ag9
ag6
aS'.'
ag18
ag16
ag4
aS'.'
ag18
ag22
ag10
aS'.'
ag2
ag22
ag10
aS'.'
ag4
ag9
ag8
aS'.'
ag14
ag9
ag8
aS'.'
ag6
ag20
ag8
aS'.'
ag10
ag9
ag11
aS'.'
ag15
ag22
ag15
aS'.'
ag19
ag22
ag15
aS'.'
ag19
ag16
ag11
aS'.'
ag11
ag5
ag15
aS'.'
ag6
ag9
ag19
aS'.'
ag4
ag9
ag2
aS'.'
ag4
ag9
ag11
aS'.'
ag10
ag21
ag18
aS'.'
ag11
ag9
ag14
aS'.'
ag10
ag9
ag4
aS'.'
ag8
ag21
ag15
aS'.'
ag4
ag21
ag4
aS'.'
ag8
ag5
ag2
aS'.'
ag19
ag13
ag19
aS'.'
ag4
ag9
ag2
aS'.'
ag19
ag22
ag14
aS'.'
ag19
ag13
ag14
aS'.'
ag10
ag21
ag18
aS'.'
ag15
ag16
ag18
aS'.'
ag18
ag13
ag8
aS'.'
ag8
ag20
ag15
aS'.'
ag4
ag20
ag19
aS'.'
ag19
ag22
ag15
aS'.'
ag18
ag22
ag10
aS'.'
ag11
ag5
ag14
aS'.'
ag6
ag20
ag8
aS'.'
ag2
ag13
ag19
aS'.'
ag4
ag20
ag6
aS'.'
ag11
ag9
ag6
aS'.'
ag6
ag20
ag2
aS'.'
ag14
ag21
ag15
aS'.'
ag14
ag21
ag2
aS'.'
ag14
ag20
ag18
aS'.'
ag4
ag20
ag11
aS'.'
ag19
ag22
ag19
aS'.'
ag10
ag21
ag14
aS'.'
ag8
ag5
ag2
aS'.'
ag2
ag16
ag15
aS'.'
ag8
ag9
ag10
aS'.'
ag2
ag16
ag14
aS'.'
ag8
ag20
ag2
aS'.'
ag2
ag16
ag14
aS'.'
ag18
ag13
ag15
aS'.'
ag10
ag20
ag2
aS'.'
ag15
ag23
ag14
aS'.'
ag6
ag20
ag4
aS'.'
ag4
ag5
ag18
aS'.'
ag8
ag9
ag2
aS'.'
ag15
ag22
ag11
aS'.'
ag15
ag22
ag18
aS'.'
ag4
ag20
ag19
aS'.'
ag2
ag23
ag15
aS'.'
ag15
ag13
ag6
aS'.'
ag2
ag23
ag19
aS'.'
ag14
ag5
ag8
aS'.'
ag2
ag22
ag14
aS'.'
ag15
ag16
ag6
aS'.'
ag11
ag9
ag18
aS'.'
ag15
ag13
ag15
aS'.'
ag8
ag5
ag15
aS'.'
ag4
ag20
ag14
aS'.'
ag8
ag5
ag18
aS'.'
ag11
ag21
ag15
aS'.'
ag8
ag21
ag4
aS'.'
ag14
ag21
ag2
aS'.'
ag8
ag20
ag2
aS'.'
ag10
ag20
ag19
aS'.'
ag4
ag21
ag2
aS'.'
ag2
ag23
ag18
aS'.'
ag14
ag5
ag14
aS'.'
ag2
ag23
ag18
aS'.'
ag8
ag5
ag14
aS'.'
ag11
ag5
ag8
aS'.'
ag15
ag16
ag8
aS'.'
ag6
ag21
ag18
aS'.'
ag15
ag22
ag10
aS'.'
ag15
ag22
ag14
aS'.'
ag4
ag5
ag15
aS'.'
ag18
ag13
ag15
aS'.'
ag2
ag16
ag18
aS'.'
ag4
ag9
ag18
aS'.'
ag14
ag9
ag4
aS'.'
ag11
ag20
ag10
aS'.'
ag14
ag9
ag6
aS'.'
ag8
ag5
ag15
aS'.'
ag14
ag9
ag11
aS'.'
ag14
ag5
ag14
aS'.'
ag6
ag21
ag14
aS'.'
ag18
ag23
ag15
aS'.'
ag18
ag22
ag4
aS'.'
ag11
ag20
ag6
aS'.'
ag2
ag13
ag2
aS'.'
ag2
ag23
ag15
aS'.'
ag18
ag16
ag19
aS'.'
ag19
ag13
ag18
aS'.'
ag10
ag5
ag15
aS'.'
ag6
ag21
ag4
aS'.'
ag15
ag22
ag19
aS'.'
ag18
ag23
ag14
aS'.'
ag11
ag21
ag18
aS'.'
ag6
ag20
ag18
aS'.'
ag8
ag21
ag6
aS'.'
ag8
ag5
ag14
aS'.'
ag8
ag20
ag18
aS'.'
ag2
ag23
ag8
aS'.'
ag6
ag20
ag4
aS'.'
ag11
ag5
ag10
aS'.'
ag4
ag9
ag8
aS'.'
ag4
ag9
ag8
aS'.'
ag6
ag5
ag15
aS'.'
ag14
ag21
ag6
aS'.'
ag15
ag23
ag10
aS'.'
ag8
ag21
ag10
aS'.'
ag4
ag21
ag15
aS'.'
ag15
ag22
ag8
aS'.'
ag8
ag21
ag10
aS'.'
ag6
ag20
ag2
aS'.'
ag19
ag23
ag19
aS'.'
ag11
ag9
ag15
aS'.'
ag8
ag9
ag6
aS'.'
ag8
ag20
ag4
aS'.'
ag14
ag20
ag6
aS'.'
ag11
ag20
ag18
aS'.'
ag2
ag23
ag14
aS'.'
ag18
ag22
ag10
aS'.'
ag18
ag23
ag18
aS'.'
ag14
ag5
ag8
aS'.'
ag14
ag5
ag4
aS'.'
ag4
ag5
ag4
aS'.'
ag4
ag5
ag2
aS'.'
ag18
ag23
ag2
aS'.'
ag10
ag20
ag11
aS'.'
ag14
ag20
ag10
aS'.'
ag2
ag22
ag10
aS'.'
ag6
ag9
ag10
aS'.'
ag2
ag23
ag6
aS'.'
ag19
ag13
ag11
aS'.'
ag18
ag23
ag11
aS'.'
ag6
ag20
ag10
aS'.'
ag14
ag21
ag10
aS'.'
ag11
ag5
ag4
aS'.'
ag15
ag23
ag14
aS'.'
ag19
ag23
ag18
aS'.'
ag19
ag16
ag6
aS'.'
ag14
ag21
ag15
aS'.'
ag19
ag16
ag10
aS'.'
ag8
ag9
ag6
aS'.'
ag6
ag9
ag18
aS'.'
ag14
ag5
ag10
aS'.'
ag18
ag22
ag18
aS'.'
ag15
ag13
ag8
aS'.'
ag10
ag20
ag10
aS'.'
ag2
ag22
ag15
aS'.'
ag14
ag9
ag18
aS'.'
ag14
ag21
ag6
aS'.'
ag2
ag22
ag14
aS'.'
ag4
ag21
ag2
aS'.'
ag11
ag5
ag15
aS'.'
ag11
ag5
ag18
aS'.'
ag15
ag13
ag14
aS'.'
ag14
ag5
ag19
aS'.'
ag19
ag13
ag2
aS'.'
ag19
ag22
ag6
aS'.'
ag8
ag5
ag6
aS'.'
ag19
ag22
ag15
aS'.'
ag14
ag21
ag18
aS'.'
ag19
ag13
ag8
aS'.'
ag18
ag16
ag6
aS'.'
ag8
ag21
ag8
aS'.'
ag6
ag9
ag8
aS'.'
ag18
ag16
ag8
aS'.'
ag14
ag20
ag8
aS'.'
ag2
ag22
ag14
aS'.'
ag4
ag9
ag15
aS'.'
ag18
ag22
ag15
aS'.'
ag6
ag5
ag18
aS'.'
ag2
ag13
ag10
aS'.'
ag8
ag5
ag14
aS'.'
ag10
ag20
ag15
aS'.'
ag14
ag9
ag8
aS'.'
ag8
ag20
ag14
aS'.'
ag10
ag20
ag2
aS'.'
ag8
ag21
ag6
aS'.'
ag4
ag21
ag11
aS'.'
ag14
ag21
ag15
aS'.'
ag10
ag5
ag2
aS'.'
ag8
ag21
ag11
aS'.'
ag18
ag22
ag8
aS'.'
ag18
ag16
ag4
aS'.'
ag18
ag13
ag14
aS'.'
ag14
ag5
ag10
aS'.'
ag4
ag5
ag6
aS'.'
ag14
ag20
ag18
aS'.'
ag14
ag5
ag10
aS'.'
ag10
ag21
ag4
aS'.'
ag4
ag5
ag10
aS'.'
ag2
ag13
ag10
aS'.'
ag10
ag20
ag18
aS'.'
ag11
ag21
ag8
aS'.'
ag10
ag5
ag2
aS'.'
ag10
ag20
ag8
aS'.'
ag6
ag9
ag18
aS'.'
ag10
ag21
ag18
aS'.'
ag2
ag23
ag6
aS'.'
ag19
ag16
ag18
aS'.'
ag10
ag20
ag14
aS'.'
ag15
ag23
ag8
aS'.'
ag15
ag22
ag8
aS'.'
ag10
ag5
ag6
aS'.'
ag10
ag21
ag4
aS'.'
ag10
ag5
ag14
aS'.'
ag18
ag22
ag6
aS'.'
ag4
ag21
ag14
aS'.'
ag19
ag16
ag15
aS'.'
ag18
ag13
ag15
aS'.'
ag11
ag5
ag4
aS'.'
ag8
ag5
ag10
aS'.'
ag6
ag21
ag6
aS'.'
ag14
ag21
ag18
aS'.'
ag8
ag5
ag8
aS'.'
ag10
ag21
ag15
aS'.'
ag14
ag21
ag2
aS'.'
ag8
ag9
ag19
aS'.'
ag19
ag13
ag11
aS'.'
ag19
ag23
ag2
aS'.'
ag8
ag21
ag19
aS'.'
ag10
ag9
ag2
aS'.'
ag11
ag21
ag10
aS'.'
ag2
ag22
ag11
aS'.'
ag4
ag5
ag2
aS'.'
ag2
ag22
ag15
aS'.'
ag11
ag20
ag19
aS'.'
ag6
ag20
ag8
aS'.'
ag15
ag13
ag6
aS'.'
ag19
ag13
ag4
aS'.'
ag2
ag23
ag10
aS'.'
ag15
ag13
ag18
aS'.'
ag4
ag9
ag8
aS'.'
ag15
ag22
ag8
aS'.'
ag14
ag9
ag2
aS'.'
ag14
ag21
ag11
aS'.'
ag6
ag20
ag11
aS'.'
ag19
ag13
ag11
aS'.'
ag14
ag20
ag2
aS'.'
ag4
ag9
ag19
aS'.'
ag2
ag13
ag19
aS'.'
ag2
ag22
ag6
aS'.'
ag2
ag16
ag14
aS'.'
ag6
ag5
ag4
aS'.'
ag14
ag9
ag14
aS'.'
ag18
ag16
ag18
aS'.'
ag14
ag5
ag2
aS'.'
ag4
ag20
ag4
aS'.'
ag8
ag21
ag15
aS'.'
ag11
ag9
ag18
aS'.'
ag8
ag5
ag6
aS'.'
ag10
ag5
ag19
aS'.'
ag14
ag5
ag19
aS'.'
ag6
ag20
ag8
aS'.'
ag2
ag13
ag11
aS'.'
ag4
ag5
ag11
aS'.'
ag15
ag13
ag8
aS'.'
ag4
ag9
ag2
aS'.'
ag11
ag21
ag11
aS'.'
ag10
aS'who'
p24
ag5
ag7
aS'.'
ag8
ag24
ag5
ag9
aS'.'
ag14
ag24
ag7
ag12
aS'.'
ag14
ag24
ag5
ag5
aS'.'
ag15
ag24
ag3
ag13
aS'.'
ag11
ag24
ag7
ag5
aS'.'
ag2
ag24
ag16
ag13
aS'.'
ag8
ag24
ag5
ag12
aS'.'
ag10
ag24
ag9
ag5
aS'.'
ag15
ag24
ag17
ag17
aS'.'
ag15
ag24
ag3
ag13
aS'.'
ag11
ag24
ag7
ag5
aS'.'
ag19
ag24
ag3
ag3
aS'.'
ag10
ag24
ag12
ag9
aS'.'
ag19
ag24
ag17
ag13
aS'.'
ag2
ag24
ag16
ag16
aS'.'
ag8
ag24
ag7
ag12
aS'.'
ag15
ag24
ag17
ag3
aS'.'
ag11
ag24
ag5
ag9
aS'.'
ag8
ag24
ag7
ag5
aS'.'
ag11
ag24
ag9
ag12
aS'.'
ag15
ag24
ag3
ag17
aS'.'
ag8
ag24
ag7
ag5
aS'.'
ag11
ag24
ag5
ag9
aS'.'
ag19
ag24
ag17
ag13
aS'.'
ag2
ag24
ag3
ag17
aS'.'
ag10
ag24
ag9
ag12
aS'.'
ag14
ag24
ag9
ag12
aS'.'
ag18
ag24
ag16
ag16
aS'.'
ag14
ag24
ag5
ag5
aS'.'
ag18
ag24
ag3
ag16
aS'.'
ag18
ag24
ag17
ag3
aS'.'
ag14
ag24
ag5
ag5
aS'.'
ag10
ag24
ag7
ag9
aS'.'
ag11
ag24
ag9
ag12
aS'.'
ag19
ag24
ag3
ag17
aS'.'
ag11
ag24
ag12
ag9
aS'.'
ag8
ag24
ag5
ag7
aS'.'
ag10
ag24
ag12
ag7
aS'.'
ag19
ag24
ag16
ag13
aS'.'
ag18
ag24
ag17
ag17
aS'.'
ag11
ag24
ag9
ag9
aS'.'
ag11
ag24
ag9
ag9
aS'.'
ag10
ag24
ag9
ag12
aS'.'
ag19
ag24
ag13
ag13
aS'.'
ag8
ag24
ag9
ag12
aS'.'
ag11
ag24
ag9
ag12
aS'.'
ag15
ag24
ag17
ag17
aS'.'
ag8
ag24
ag5
ag12
aS'.'
ag14
ag24
ag12
ag7
aS'.'
ag4
ag5
ag15
ag24
ag3
aS'.'
ag11
ag24
ag20
ag8
ag12
aS'.'
ag18
ag24
ag13
ag10
ag3
aS'.'
ag18
ag24
ag6
ag21
ag13
aS'.'
ag18
ag24
ag22
ag8
ag3
aS'.'
ag19
ag24
ag13
ag22
ag8
aS'.'
ag8
ag24
ag18
ag23
ag7
aS'.'
ag14
ag24
ag9
ag9
ag15
aS'.'
ag10
ag24
ag9
ag15
ag9
aS'.'
ag11
ag20
ag11
ag24
ag12
aS'.'
ag10
ag24
ag20
ag11
ag5
aS'.'
ag8
ag24
ag5
ag6
ag5
aS'.'
ag11
ag24
ag9
ag5
ag11
aS'.'
ag8
ag24
ag7
ag9
ag15
aS'.'
ag10
ag21
ag15
ag24
ag17
aS'.'
ag10
ag24
ag5
ag4
ag9
aS'.'
ag14
ag24
ag11
ag20
ag12
aS'.'
ag18
ag24
ag22
ag6
ag16
aS'.'
ag14
ag24
ag21
ag8
ag5
aS'.'
ag18
ag24
ag19
ag23
ag17
aS'.'
ag15
ag23
ag14
ag24
ag5
aS'.'
ag19
ag16
ag2
ag24
ag13
aS'.'
ag15
ag23
ag19
ag24
ag17
aS'.'
ag19
ag24
ag17
ag22
ag2
aS'.'
ag15
ag24
ag2
ag22
ag3
aS'.'
ag11
ag24
ag7
ag20
ag18
aS'.'
ag10
ag9
ag2
ag24
ag13
aS'.'
ag4
ag21
ag18
ag24
ag16
aS'.'
ag2
ag24
ag13
ag4
ag3
aS'.'
ag18
ag23
ag2
ag24
ag13
aS'.'
ag4
ag9
ag14
ag24
ag7
aS'.'
ag2
ag24
ag19
ag22
ag17
aS'.'
ag15
ag24
ag22
ag2
ag17
aS'.'
ag15
ag24
ag4
ag21
ag17
aS'.'
ag15
ag24
ag6
ag21
ag13
aS'.'
ag2
ag24
ag23
ag19
ag16
aS'.'
ag19
ag24
ag19
ag22
ag16
aS'.'
ag8
ag24
ag9
ag5
ag14
aS'.'
ag2
ag24
ag16
ag13
ag18
aS'.'
ag15
ag24
ag2
ag22
ag3
aS'.'
ag15
ag24
ag23
ag15
ag17
aS'.'
ag18
ag24
ag3
ag22
ag8
aS'.'
ag15
ag24
ag4
ag21
ag3
aS'.'
ag14
ag5
ag15
ag24
ag17
aS'.'
ag15
ag24
ag16
ag16
ag10
aS'.'
ag15
ag16
ag2
ag24
ag3
aS'.'
ag18
ag24
ag3
ag23
ag4
aS'.'
ag2
ag24
ag13
ag16
ag18
aS'.'
ag19
ag24
ag13
ag8
ag3
aS'.'
ag19
ag24
ag22
ag2
ag16
aS'.'
ag19
ag24
ag13
ag23
ag4
aS'.'
ag8
ag21
ag2
ag24
ag3
aS'.'
ag8
ag24
ag20
ag18
ag9
aS'.'
ag19
ag13
ag10
ag24
ag5
aS'.'
ag2
ag24
ag16
ag14
ag3
aS'.'
ag18
ag24
ag13
ag23
ag10
aS'.'
ag14
ag24
ag11
ag21
ag7
aS'.'
ag14
ag24
ag21
ag8
ag12
aS'.'
ag15
ag24
ag23
ag8
ag3
aS'.'
ag14
ag24
ag5
ag14
ag12
aS'.'
ag2
ag24
ag23
ag10
ag16
aS'.'
ag18
ag23
ag18
ag24
ag13
aS'.'
ag18
ag24
ag23
ag4
ag17
aS'.'
ag14
ag9
ag2
ag24
ag17
aS'.'
ag4
ag21
ag14
ag24
ag5
aS'.'
ag14
ag24
ag12
ag5
ag2
aS'.'
ag19
ag24
ag23
ag15
ag13
aS'.'
ag14
ag24
ag2
ag22
ag12
aS'.'
ag11
ag24
ag7
ag21
ag11
aS'.'
ag18
ag24
ag16
ag13
ag6
aS'.'
ag15
ag24
ag6
ag20
ag17
aS'.'
ag8
ag24
ag20
ag6
ag7
aS'.'
ag6
ag9
ag18
ag24
ag3
aS'.'
ag18
ag24
ag3
ag16
ag14
aS'.'
ag11
ag24
ag9
ag9
ag11
aS'.'
ag15
ag24
ag16
ag15
ag13
aS'.'
ag11
ag24
ag7
ag5
ag11
aS'.'
ag2
ag24
ag16
ag16
ag2
aS'.'
ag10
ag24
ag12
ag9
ag10
aS'.'
ag14
ag24
ag9
ag14
ag12
aS'.'
ag8
ag24
ag20
ag8
ag7
aS'.'
ag2
ag24
ag22
ag15
ag13
aS'.'
ag10
ag5
ag11
ag24
ag9
aS'.'
ag18
ag24
ag19
ag23
ag13
aS'.'
ag10
ag24
ag21
ag14
ag5
aS'.'
ag18
ag24
ag17
ag16
ag6
aS'.'
ag11
ag24
ag5
ag6
ag5
aS'.'
ag19
ag24
ag8
ag20
ag17
aS'.'
ag2
ag24
ag22
ag10
ag3
aS'.'
ag4
ag9
ag11
ag24
ag12
aS'.'
ag18
ag24
ag3
ag13
ag14
aS'.'
ag18
ag24
ag6
ag20
ag13
aS'.'
ag19
ag24
ag16
ag13
ag6
aS'.'
ag14
ag24
ag21
ag11
ag5
aS'.'
ag8
ag24
ag5
ag10
ag9
aS'.'
ag18
ag24
ag17
ag22
ag6
aS'.'
ag11
ag24
ag15
ag22
ag7
aS'.'
ag8
ag5
ag14
ag24
ag7
aS'.'
ag8
ag9
ag10
ag24
ag9
aS'.'
ag11
ag21
ag2
ag24
ag17
aS'.'
ag14
ag24
ag5
ag9
ag14
aS'.'
ag11
ag24
ag12
ag21
ag11
aS'.'
ag18
ag24
ag22
ag14
ag16
aS'.'
ag11
ag24
ag12
ag9
ag6
aS'.'
ag14
ag24
ag7
ag5
ag18
aS'.'
ag6
ag20
ag19
ag24
ag16
aS'.'
ag2
ag13
ag19
ag24
ag16
aS'.'
ag19
ag24
ag16
ag22
ag4
aS'.'
ag15
ag24
ag23
ag2
ag3
aS'.'
ag18
ag23
ag2
ag24
ag16
aS'.'
ag10
ag21
ag14
ag24
ag5
aS'.'
ag8
ag24
ag9
ag21
ag8
aS'.'
ag19
ag24
ag16
ag23
ag10
aS'.'
ag2
ag13
ag8
ag24
ag7
aS'.'
ag8
ag24
ag9
ag20
ag2
aS'.'
ag18
ag24
ag3
ag13
ag11
aS'.'
ag2
ag16
ag10
ag24
ag7
aS'.'
ag14
ag24
ag20
ag19
ag9
aS'.'
ag8
ag24
ag5
ag10
ag9
aS'.'
ag8
ag24
ag7
ag21
ag2
aS'.'
ag18
ag24
ag22
ag15
ag16
aS'.'
ag4
ag5
ag19
ag24
ag17
aS'.'
ag19
ag13
ag8
ag24
ag5
aS'.'
ag11
ag24
ag5
ag9
ag2
aS'.'
ag2
ag24
ag17
ag13
ag18
aS'.'
ag18
ag13
ag14
ag24
ag9
aS'.'
ag2
ag24
ag4
ag20
ag3
aS'.'
ag10
ag24
ag20
ag10
ag9
aS'.'
ag18
ag24
ag17
ag23
ag8
aS'.'
ag2
ag24
ag23
ag14
ag13
aS'.'
ag10
ag24
ag12
ag21
ag10
aS'.'
ag19
ag24
ag4
ag20
ag13
aS'.'
ag19
ag24
ag22
ag11
ag17
aS'.'
ag10
ag5
ag8
ag24
ag7
aS'.'
ag14
ag24
ag21
ag8
ag9
aS'.'
ag2
ag24
ag22
ag2
ag17
aS'.'
ag6
ag21
ag14
ag24
ag7
aS'.'
ag11
ag24
ag12
ag20
ag14
aS'.'
ag8
ag24
ag21
ag15
ag12
aS'.'
ag19
ag24
ag16
ag22
ag10
aS'.'
ag2
ag24
ag17
ag22
ag8
aS'.'
ag19
ag23
ag15
ag24
ag13
aS'.'
ag2
ag24
ag17
ag16
ag4
aS'.'
ag10
ag24
ag12
ag9
ag4
aS'.'
ag10
ag21
ag18
ag24
ag3
aS'.'
ag4
ag21
ag14
ag24
ag5
aS'.'
ag14
ag20
ag10
ag24
ag7
aS'.'
ag14
ag24
ag9
ag20
ag14
aS'.'
ag10
ag24
ag5
ag5
ag4
aS'.'
ag11
ag24
ag21
ag8
ag9
aS'.'
ag10
ag24
ag12
ag20
ag19
aS'.'
ag8
ag24
ag9
ag11
ag7
aS'.'
ag2
ag23
ag8
ag24
ag9
aS'.'
ag2
ag23
ag14
ag24
ag5
aS'.'
ag10
ag24
ag12
ag5
ag4
aS'.'
ag11
ag24
ag9
ag21
ag11
aS'.'
ag18
ag24
ag13
ag15
ag16
aS'.'
ag19
ag24
ag17
ag13
ag8
aS'.'
ag19
ag24
ag22
ag18
ag16
aS'.'
ag8
ag21
ag18
ag24
ag16
aS'.'
ag11
ag24
ag12
ag9
ag10
aS'.'
ag18
ag24
ag16
ag11
ag17
aS'.'
ag10
ag20
ag2
ag24
ag13
aS'.'
ag2
ag24
ag17
ag23
ag8
aS'.'
ag19
ag24
ag17
ag22
ag8
aS'.'
ag11
ag24
ag5
ag4
ag9
aS'.'
ag14
ag24
ag5
ag11
ag7
aS'.'
ag14
ag5
ag8
ag24
ag12
aS'.'
ag10
ag24
ag15
ag23
ag7
aS'.'
ag19
ag24
ag17
ag13
ag2
aS'.'
ag8
ag24
ag5
ag5
ag10
aS'.'
ag18
ag13
ag18
ag24
ag16
aS'.'
ag11
ag24
ag9
ag9
ag14
aS'.'
ag10
ag24
ag5
ag14
ag12
aS'.'
ag19
ag24
ag3
ag13
ag15
aS'.'
ag19
ag24
ag13
ag16
ag14
aS'.'
ag10
ag24
ag9
ag15
ag7
aS'.'
ag2
ag13
ag14
ag24
ag9
aS'.'
ag11
ag5
ag10
ag24
ag5
aS'.'
ag19
ag24
ag3
ag16
ag15
aS'.'
ag11
ag24
ag9
ag5
ag8
aS'.'
ag8
ag24
ag5
ag15
ag7
aS'.'
ag15
ag24
ag13
ag10
ag16
aS'.'
ag14
ag9
ag15
ag24
ag3
aS'.'
ag15
ag13
ag15
ag24
ag3
aS'.'
ag19
ag24
ag13
ag4
ag16
aS'.'
ag8
ag24
ag8
ag20
ag12
aS'.'
ag11
ag24
ag20
ag2
ag9
aS'.'
ag8
ag24
ag5
ag21
ag4
aS'.'
ag11
ag5
ag8
ag24
ag7
aS'.'
ag8
ag24
ag11
ag21
ag5
aS'.'
ag11
ag24
ag5
ag10
ag5
aS'.'
ag19
ag24
ag16
ag11
ag3
aS'.'
ag15
ag23
ag15
ag24
ag17
aS'.'
ag10
ag24
ag12
ag9
ag11
aS'.'
ag8
ag5
ag15
ag24
ag13
aS'.'
ag15
ag24
ag16
ag15
ag13
aS'.'
ag18
ag24
ag16
ag22
ag18
aS'.'
ag14
ag24
ag12
ag21
ag11
aS'.'
ag8
ag9
ag15
ag24
ag13
aS'.'
ag10
ag24
ag15
ag23
ag7
aS'.'
ag14
ag5
ag19
ag24
ag17
aS'.'
ag4
ag5
ag8
ag24
ag7
aS'.'
ag14
ag24
ag5
ag11
ag7
aS'.'
ag15
ag24
ag17
ag23
ag6
aS'.'
ag11
ag24
ag9
ag15
ag9
aS'.'
ag2
ag24
ag11
ag20
ag13
aS'.'
ag18
ag24
ag16
ag8
ag17
aS'.'
ag19
ag24
ag4
ag21
ag3
aS'.'
ag14
ag24
ag7
ag5
ag18
aS'.'
ag11
ag24
ag5
ag5
ag19
aS'.'
ag14
ag24
ag19
ag23
ag7
aS'.'
ag15
ag24
ag22
ag4
ag3
aS'.'
ag6
ag5
ag18
ag24
ag3
aS'.'
ag18
ag13
ag15
ag24
ag13
aS'.'
ag18
ag24
ag10
ag21
ag13
aS'.'
ag11
ag24
ag5
ag18
ag9
aS'.'
ag14
ag24
ag21
ag15
ag7
aS'.'
ag14
ag24
ag7
ag20
ag18
aS'.'
ag15
ag24
ag16
ag22
ag6
aS'.'
ag2
ag24
ag23
ag6
ag13
aS'.'
ag15
ag24
ag19
ag23
ag3
aS'.'
ag10
ag24
ag4
ag21
ag12
aS'.'
ag15
ag24
ag11
ag20
ag13
aS'.'
ag6
ag9
ag14
ag24
ag5
aS'.'
ag4
ag9
ag19
ag24
ag16
aS'.'
ag8
ag24
ag4
ag20
ag9
aS'.'
ag8
ag24
ag21
ag10
ag7
aS'.'
ag6
ag5
ag10
ag24
ag5
aS'.'
ag18
ag24
ag13
ag15
ag16
aS'.'
ag10
ag24
ag20
ag11
ag12
aS'.'
ag10
ag24
ag5
ag9
ag11
aS'.'
ag11
ag21
ag10
ag24
ag7
aS'.'
ag10
ag24
ag9
ag11
ag7
aS'.'
ag18
ag24
ag13
ag18
ag3
aS'.'
ag15
ag24
ag13
ag10
ag3
aS'.'
ag8
ag20
ag14
ag24
ag5
aS'.'
ag10
ag24
ag12
ag21
ag18
aS'.'
ag6
ag5
ag11
ag24
ag12
aS'.'
ag15
ag24
ag18
ag22
ag16
aS'.'
ag4
ag20
ag19
ag24
ag16
aS'.'
ag11
ag24
ag12
ag5
ag14
aS'.'
ag18
ag13
ag11
ag24
ag12
aS'.'
ag10
ag24
ag5
ag9
ag19
aS'.'
ag8
ag5
ag10
ag24
ag7
aS'.'
ag2
ag24
ag13
ag23
ag4
aS'.'
ag6
ag20
ag11
ag24
ag12
aS'.'
ag8
ag9
ag2
ag24
ag16
aS'.'
ag19
ag24
ag16
ag22
ag4
aS'.'
ag6
ag9
ag2
ag24
ag16
aS'.'
ag8
ag24
ag5
ag8
ag7
aS'.'
ag18
ag24
ag16
ag22
ag10
aS'.'
ag19
ag24
ag16
ag4
ag13
aS'.'
ag6
ag9
ag18
ag24
ag17
aS'.'
ag14
ag21
ag14
ag24
ag5
aS'.'
ag19
ag24
ag15
ag23
ag16
aS'.'
ag15
ag24
ag13
ag23
ag19
aS'.'
ag11
ag24
ag5
ag19
ag12
aS'.'
ag2
ag23
ag11
ag24
ag7
aS'.'
ag2
ag24
ag22
ag11
ag13
aS'.'
ag15
ag24
ag17
ag13
ag2
aS'.'
ag15
ag24
ag3
ag13
ag18
aS'.'
ag10
ag24
ag14
ag21
ag7
aS'.'
ag15
ag24
ag22
ag4
ag17
aS'.'
ag8
ag24
ag5
ag11
ag5
aS'.'
ag4
ag5
ag2
ag24
ag3
aS'.'
ag15
ag13
ag2
ag24
ag3
aS'.'
ag2
ag24
ag14
ag20
ag17
aS'.'
ag18
ag24
ag23
ag15
ag16
aS'.'
ag18
ag13
ag8
ag24
ag12
aS'.'
ag8
ag24
ag5
ag20
ag11
aS'.'
ag8
ag20
ag19
ag24
ag13
aS'.'
ag11
ag24
ag20
ag15
ag7
aS'.'
ag18
ag16
ag8
ag24
ag9
aS'.'
ag2
ag16
ag11
ag24
ag5
aS'.'
ag19
ag24
ag13
ag19
ag3
aS'.'
ag2
ag24
ag2
ag22
ag17
aS'.'
ag2
ag24
ag13
ag22
ag8
aS'.'
ag15
ag24
ag11
ag21
ag13
aS'.'
ag11
ag24
ag4
ag21
ag9
aS'.'
ag15
ag24
ag22
ag10
ag17
aS'.'
ag11
ag9
ag11
ag24
ag7
aS'.'
ag15
ag24
ag11
ag20
ag13
aS'.'
ag2
ag13
ag10
ag24
ag9
aS'.'
ag2
ag24
ag3
ag22
ag19
aS'.'
ag10
ag24
ag9
ag9
ag19
aS'.'
ag8
ag20
ag2
ag24
ag13
aS'.'
ag14
ag24
ag7
ag20
ag2
aS'.'
ag10
ag24
ag9
ag9
ag15
aS'.'
ag2
ag24
ag16
ag6
ag3
aS'.'
ag10
ag24
ag9
ag20
ag2
aS'.'
ag8
ag24
ag5
ag11
ag12
aS'.'
ag15
ag24
ag17
ag23
ag4
aS'.'
ag11
ag24
ag7
ag20
ag4
aS'.'
ag8
ag24
ag21
ag6
ag5
aS'.'
ag10
ag24
ag21
ag8
ag7
aS'.'
ag11
ag24
ag9
ag20
ag18
aS'.'
ag11
ag24
ag20
ag18
ag12
aS'.'
ag15
ag24
ag17
ag23
ag18
aS'.'
ag10
ag24
ag12
ag20
ag19
aS'.'
ag11
ag24
ag5
ag20
ag10
aS'.'
ag11
ag21
ag18
ag24
ag3
aS'.'
ag14
ag5
ag15
ag24
ag17
aS'.'
ag18
ag16
ag14
ag24
ag7
aS'.'
ag15
ag23
ag19
ag24
ag17
aS'.'
ag18
ag24
ag22
ag11
ag3
aS'.'
ag15
ag24
ag4
ag21
ag13
aS'.'
ag18
ag24
ag22
ag10
ag3
aS'.'
ag10
ag24
ag10
ag21
ag5
aS'.'
ag15
ag24
ag13
ag13
ag15
aS'.'
ag11
ag24
ag5
ag20
ag8
aS'.'
ag19
ag24
ag22
ag18
ag13
aS'.'
ag19
ag24
ag4
ag20
ag17
aS'.'
ag8
ag24
ag21
ag2
ag7
aS'.'
ag14
ag24
ag5
ag21
ag19
aS'.'
ag18
ag24
ag17
ag22
ag11
aS'.'
ag8
ag9
ag2
ag24
ag17
aS'.'
ag11
ag20
ag11
ag24
ag7
aS'.'
ag10
ag24
ag18
ag22
ag7
aS'.'
ag2
ag24
ag16
ag14
ag3
aS'.'
ag6
ag9
ag15
ag24
ag3
aS'.'
ag8
ag24
ag12
ag21
ag15
aS'.'
ag2
ag24
ag6
ag20
ag3
aS'.'
ag2
ag24
ag22
ag10
ag16
aS'.'
ag15
ag24
ag23
ag6
ag16
aS'.'
ag11
ag24
ag4
ag20
ag9
aS'.'
ag15
ag24
ag13
ag23
ag11
aS'.'
ag11
ag24
ag21
ag19
ag7
aS'.'
ag14
ag24
ag7
ag5
ag14
aS'.'
ag15
ag13
ag14
ag24
ag9
aS'.'
ag14
ag24
ag12
ag5
ag2
aS'.'
ag19
ag24
ag23
ag2
ag3
aS'.'
ag14
ag21
ag8
ag24
ag9
aS'.'
ag10
ag24
ag20
ag4
ag5
aS'.'
ag19
ag16
ag14
ag24
ag7
aS'.'
ag2
ag24
ag16
ag10
ag13
aS'.'
ag15
ag16
ag11
ag24
ag5
aS'.'
ag8
ag21
ag2
ag24
ag3
aS'.'
ag15
ag23
ag11
ag24
ag9
aS'.'
ag2
ag24
ag15
ag22
ag17
aS'.'
ag2
ag24
ag22
ag18
ag16
aS'.'
ag18
ag24
ag17
ag23
ag2
aS'.'
ag19
ag13
ag14
ag24
ag12
aS'.'
ag15
ag24
ag16
ag15
ag16
aS'.'
ag11
ag24
ag21
ag14
ag12
aS'.'
ag18
ag13
ag10
ag24
ag9
aS'.'
ag19
ag13
ag2
ag24
ag13
aS'.'
ag2
ag24
ag13
ag16
ag14
aS'.'
ag14
ag24
ag9
ag21
ag15
aS'.'
ag15
ag24
ag16
ag23
ag8
aS'.'
ag4
ag9
ag11
ag24
ag5
aS'.'
ag10
ag24
ag21
ag2
ag12
aS'.'
ag10
ag24
ag9
ag10
ag12
aS'.'
ag8
ag24
ag21
ag14
ag5
aS'.'
ag19
ag23
ag18
ag24
ag13
aS'.'
ag8
ag24
ag21
ag4
ag12
aS'.'
ag11
ag24
ag5
ag8
ag5
aS'.'
ag10
ag24
ag2
ag23
ag9
aS'.'
ag19
ag22
ag15
ag24
ag16
aS'.'
ag8
ag24
ag12
ag9
ag18
aS'.'
ag11
ag20
ag15
ag24
ag13
aS'.'
ag10
ag21
ag11
ag24
ag7
aS'.'
ag19
ag24
ag3
ag16
ag14
aS'.'
ag11
ag24
ag9
ag9
ag15
aS'.'
ag2
ag24
ag22
ag8
ag13
aS'.'
ag8
ag24
ag20
ag2
ag7
aS'.'
ag11
ag21
ag19
ag24
ag17
aS'.'
ag18
ag24
ag16
ag22
ag10
aS'.'
ag15
ag24
ag4
ag21
ag16
aS'.'
ag8
ag24
ag21
ag6
ag12
aS'.'
ag10
ag24
ag20
ag14
ag12
aS'.'
ag14
ag24
ag20
ag15
ag12
aS'.'
ag6
ag9
ag2
ag24
ag17
aS'.'
ag14
ag24
ag9
ag2
ag5
aS'.'
ag18
ag24
ag17
ag13
ag19
aS'.'
ag18
ag22
ag19
ag24
ag16
aS'.'
ag4
ag21
ag18
ag24
ag3
aS'.'
ag18
ag24
ag16
ag22
ag19
aS'.'
ag2
ag24
ag13
ag23
ag18
aS'.'
ag8
ag24
ag5
ag21
ag14
aS'.'
ag19
ag24
ag3
ag13
ag18
aS'.'
ag19
ag24
ag22
ag15
ag3
aS'.'
ag14
ag24
ag10
ag20
ag7
aS'.'
ag8
ag24
ag5
ag19
ag12
aS'.'
ag8
ag24
ag18
ag22
ag7
aS'.'
ag15
ag24
ag10
ag20
ag13
aS'.'
ag2
ag24
ag13
ag22
ag2
aS'.'
ag11
ag9
ag11
ag24
ag12
aS'.'
ag2
ag24
ag14
ag21
ag17
aS'.'
ag19
ag16
ag10
ag24
ag9
aS'.'
ag10
ag24
ag19
ag23
ag12
aS'.'
ag19
ag24
ag17
ag22
ag4
aS'.'
ag10
ag21
ag2
ag24
ag13
aS'.'
ag14
ag21
ag11
ag24
ag5
aS'.'
ag18
ag24
ag6
ag21
ag16
aS'.'
ag2
ag24
ag16
ag22
ag10
aS'.'
ag15
ag24
ag22
ag8
ag3
aS'.'
ag19
ag13
ag8
ag24
ag9
aS'.'
ag14
ag24
ag15
ag23
ag12
aS'.'
ag2
ag24
ag19
ag22
ag17
aS'.'
ag4
ag9
ag11
ag24
ag9
aS'.'
ag10
ag24
ag5
ag21
ag14
aS'.'
ag19
ag23
ag2
ag24
ag16
aS'.'
ag8
ag24
ag9
ag5
ag10
aS'.'
ag11
ag20
ag10
ag24
ag5
aS'.'
ag2
ag24
ag10
ag21
ag3
aS'.'
ag2
ag16
ag10
ag24
ag12
aS'.'
ag14
ag24
ag5
ag21
ag8
aS'.'
ag2
ag24
ag17
ag23
ag18
aS'.'
ag2
ag24
ag13
ag4
ag17
aS'.'
ag18
ag24
ag16
ag19
ag16
aS'.'
ag8
ag24
ag21
ag15
ag12
aS'.'
ag4
ag20
ag19
ag24
ag13
aS'.'
ag15
ag24
ag11
ag20
ag13
aS'.'
ag18
ag24
ag17
ag13
ag2
aS'.'
ag11
ag24
ag7
ag21
ag11
aS'.'
ag10
ag24
ag7
ag21
ag14
aS'.'
ag18
ag16
ag11
ag24
ag7
aS'.'
ag14
ag24
ag21
ag10
ag5
aS'.'
ag14
ag21
ag14
ag24
ag9
aS'.'
ag18
ag24
ag17
ag23
ag4
aS'.'
ag11
ag24
ag7
ag9
ag10
aS'.'
ag18
ag24
ag3
ag23
ag11
aS'.'
ag8
ag24
ag5
ag10
ag12
aS'.'
ag19
ag24
ag13
ag22
ag4
aS'.'
ag14
ag21
ag2
ag24
ag17
aS'.'
ag6
ag20
ag14
ag24
ag12
aS'.'
ag14
ag5
ag14
ag24
ag9
aS'.'
ag14
ag24
ag5
ag6
ag9
aS'.'
ag18
ag24
ag22
ag10
ag17
aS'.'
ag14
ag24
ag21
ag14
ag5
aS'.'
ag18
ag22
ag19
ag24
ag3
aS'.'
ag15
ag24
ag23
ag8
ag13
aS'.'
ag11
ag9
ag15
ag24
ag17
aS'.'
ag19
ag24
ag13
ag2
ag17
aS'.'
ag8
ag24
ag5
ag9
ag6
aS'.'
ag19
ag24
ag13
ag13
ag18
aS'.'
ag10
ag21
ag10
ag24
ag7
aS'.'
ag18
ag24
ag16
ag22
ag6
aS'.'
ag18
ag23
ag2
ag24
ag3
aS'.'
ag14
ag21
ag18
ag24
ag17
aS'.'
ag11
ag24
ag12
ag9
ag4
aS'.'
ag4
ag20
ag14
ag24
ag12
aS'.'
ag18
ag24
ag16
ag16
ag18
aS'.'
ag19
ag24
ag23
ag6
ag3
aS'.'
ag8
ag24
ag18
ag22
ag12
aS'.'
ag15
ag24
ag17
ag13
ag11
aS'.'
ag8
ag20
ag11
ag24
ag5
aS'.'
ag10
ag9
ag2
ag24
ag3
aS'.'
ag18
ag24
ag15
ag22
ag16
aS'.'
ag18
ag24
ag13
ag2
ag17
aS'.'
ag11
ag21
ag15
ag24
ag16
aS'.'
ag19
ag24
ag16
ag22
ag15
aS'.'
ag10
ag24
ag12
ag20
ag2
aS'.'
ag10
ag24
ag5
ag2
ag12
aS'.'
ag8
ag24
ag5
ag20
ag8
aS'.'
ag8
ag24
ag21
ag11
ag7
aS'.'
ag14
ag24
ag9
ag5
ag6
aS'.'
ag19
ag24
ag13
ag11
ag3
aS'.'
ag2
ag24
ag16
ag23
ag18
aS'.'
ag6
ag20
ag14
ag24
ag7
aS'.'
ag18
ag24
ag17
ag22
ag4
aS'.'
ag15
ag24
ag16
ag13
ag18
aS'.'
ag18
ag22
ag2
ag24
ag3
aS'.'
ag10
ag24
ag5
ag9
ag4
aS'.'
ag18
ag24
ag22
ag4
ag3
aS'.'
ag2
ag24
ag18
ag23
ag16
aS'.'
ag19
ag24
ag16
ag22
ag4
aS'.'
ag11
ag5
ag2
ag24
ag13
aS'.'
ag10
ag9
ag14
ag24
ag12
aS'.'
ag14
ag20
ag14
ag24
ag7
aS'.'
ag10
ag24
ag18
ag23
ag12
aS'.'
ag14
ag24
ag14
ag20
ag5
aS'.'
ag2
ag22
ag10
ag24
ag5
aS'.'
ag18
ag23
ag8
ag24
ag5
aS'.'
ag15
ag24
ag13
ag4
ag3
aS'.'
ag2
ag24
ag3
ag16
ag15
aS'.'
ag11
ag24
ag9
ag19
ag12
aS'.'
ag11
ag24
ag20
ag15
ag7
aS'.'
ag8
ag24
ag12
ag20
ag14
aS'.'
ag2
ag23
ag18
ag24
ag13
aS'.'
ag10
ag24
ag12
ag9
ag11
aS'.'
ag14
ag24
ag12
ag21
ag10
aS'.'
ag2
ag24
ag3
ag22
ag4
aS'.'
ag15
ag24
ag13
ag16
ag6
aS'.'
ag19
ag24
ag23
ag4
ag17
aS'.'
ag18
ag24
ag19
ag22
ag3
aS'.'
ag19
ag24
ag16
ag16
ag10
aS'.'
ag18
ag24
ag16
ag13
ag14
aS'.'
ag11
ag9
ag11
ag24
ag12
aS'.'
ag4
ag21
ag11
ag24
ag5
aS'.'
ag2
ag13
ag18
ag24
ag16
aS'.'
ag11
ag24
ag7
ag20
ag2
aS'.'
ag2
ag13
ag10
ag24
ag9
aS'.'
ag2
ag24
ag23
ag19
ag3
aS'.'
ag11
ag24
ag7
ag21
ag19
aS'.'
ag18
ag24
ag17
ag22
ag18
aS'.'
ag8
ag24
ag20
ag15
ag5
aS'.'
ag19
ag13
ag15
ag24
ag3
aS'.'
ag10
ag24
ag9
ag21
ag10
aS'.'
ag18
ag16
ag14
ag24
ag7
aS'.'
ag19
ag13
ag2
ag24
ag16
aS'.'
ag19
ag24
ag13
ag14
ag13
aS'.'
ag4
ag9
ag19
ag24
ag3
aS'.'
ag15
ag24
ag14
ag20
ag13
aS'.'
ag14
ag24
ag7
ag5
ag6
aS'.'
ag6
ag20
ag8
ag24
ag5
aS'.'
ag14
ag24
ag20
ag2
ag12
aS'.'
ag15
ag24
ag2
ag22
ag17
aS'.'
ag18
ag24
ag13
ag23
ag10
aS'.'
ag8
ag24
ag5
ag6
ag7
aS'.'
ag10
ag24
ag8
ag20
ag12
aS'.'
ag10
ag24
ag15
ag22
ag9
aS'.'
ag11
ag5
ag15
ag24
ag3
aS'.'
ag15
ag24
ag3
ag16
ag6
aS'.'
ag6
ag5
ag18
ag24
ag16
aS'.'
ag15
ag24
ag13
ag23
ag2
aS'.'
ag14
ag24
ag20
ag15
ag7
aS'.'
ag18
ag24
ag23
ag10
ag13
aS'.'
ag8
ag5
ag18
ag24
ag3
aS'.'
ag18
ag22
ag14
ag24
ag9
aS'.'
ag14
ag9
ag14
ag24
ag9
aS'.'
ag15
ag24
ag16
ag23
ag10
aS'.'
ag10
ag24
ag7
ag5
ag2
aS'.'
ag14
ag24
ag21
ag18
ag7
aS'.'
ag2
ag24
ag13
ag13
ag19
aS'.'
ag10
ag24
ag20
ag18
ag9
aS'.'
ag18
ag24
ag4
ag20
ag16
aS'.'
ag15
ag24
ag13
ag13
ag19
aS'.'
ag4
ag9
ag10
ag24
ag7
aS'.'
ag6
ag9
ag8
ag24
ag9
aS'.'
ag2
ag24
ag13
ag10
ag16
aS'.'
ag8
ag21
ag8
ag24
ag5
aS'.'
ag14
ag5
ag8
ag24
ag5
aS'.'
ag10
ag24
ag14
ag20
ag12
aS'.'
ag2
ag24
ag13
ag22
ag6
aS'.'
ag14
ag24
ag7
ag20
ag14
aS'.'
ag8
ag20
ag14
ag24
ag7
aS'.'
ag18
ag24
ag16
ag18
ag16
aS'.'
ag18
ag24
ag15
ag22
ag16
aS'.'
ag15
ag24
ag22
ag19
ag17
aS'.'
ag4
ag20
ag19
ag24
ag13
aS'.'
ag15
ag24
ag10
ag21
ag17
aS'.'
ag10
ag24
ag7
ag20
ag2
aS'.'
ag11
ag21
ag8
ag24
ag12
aS'.'
ag4
ag21
ag2
ag24
ag17
aS'.'
ag2
ag13
ag10
ag24
ag5
aS'.'
ag18
ag23
ag8
ag24
ag12
aS'.'
ag4
ag20
ag11
ag24
ag7
aS'.'
ag19
ag24
ag16
ag19
ag17
aS'.'
ag11
ag24
ag9
ag11
ag12
aS'.'
ag15
ag24
ag17
ag16
ag6
aS'.'
ag15
ag24
ag17
ag13
ag15
aS'.'
ag14
ag24
ag9
ag21
ag6
aS'.'
ag18
ag24
ag23
ag6
ag16
aS'.'
ag10
ag24
ag21
ag15
ag7
aS'.'
ag11
ag24
ag12
ag9
ag15
aS'.'
ag2
ag24
ag3
ag22
ag4
aS'.'
ag14
ag24
ag12
ag5
ag8
aS'.'
ag10
ag24
ag20
ag15
ag12
aS'.'
ag19
ag24
ag16
ag23
ag2
aS'.'
ag15
ag24
ag3
ag16
ag15
aS'.'
ag19
ag24
ag13
ag14
ag3
aS'.'
ag8
ag24
ag21
ag19
ag7
aS'.'
ag2
ag24
ag3
ag23
ag14
aS'.'
ag11
ag24
ag5
ag4
ag12
aS'.'
ag14
ag24
ag9
ag6
ag5
aS'.'
ag11
ag24
ag5
ag21
ag2
aS'.'
ag11
ag24
ag15
ag23
ag5
aS'.'
ag10
ag24
ag5
ag19
ag12
aS'.'
ag15
ag24
ag3
ag22
ag10
aS'.'
ag6
ag9
ag2
ag24
ag13
aS'.'
ag8
ag24
ag9
ag9
ag14
aS'.'
ag8
ag5
ag18
ag24
ag3
aS'.'
ag8
ag24
ag12
ag9
ag11
aS'.'
ag4
ag21
ag15
ag24
ag13
aS'.'
ag11
ag24
ag9
ag5
ag15
aS'.'
ag15
ag22
ag2
ag24
ag17
aS'.'
ag18
ag24
ag14
ag21
ag16
aS'.'
ag10
ag24
ag5
ag9
ag11
aS'.'
ag18
ag24
ag19
ag23
ag13
aS'.'
ag6
ag9
ag10
ag24
ag5
aS'.'
ag8
ag24
ag5
ag9
ag11
aS'.'
ag19
ag13
ag14
ag24
ag7
aS'.'
ag6
ag5
ag11
ag24
ag7
aS'.'
ag8
ag24
ag7
ag9
ag6
aS'.'
ag18
ag24
ag4
ag20
ag17
aS'.'
ag11
ag24
ag21
ag4
ag7
aS'.'
ag14
ag24
ag9
ag21
ag6
aS'.'
ag19
ag22
ag2
ag24
ag17
aS'.'
ag19
ag24
ag16
ag13
ag11
aS'.'
ag19
ag24
ag3
ag13
ag6
aS'.'
ag4
ag20
ag19
ag24
ag17
aS'.'
ag6
ag21
ag14
ag24
ag5
aS'.'
ag15
ag24
ag16
ag23
ag11
aS'.'
ag14
ag24
ag9
ag18
ag12
aS'.'
ag8
ag9
ag2
ag24
ag17
aS'.'
ag10
ag24
ag5
ag9
ag2
aS'.'
ag10
ag24
ag12
ag20
ag10
aS'.'
ag19
ag24
ag16
ag18
ag13
aS'.'
ag15
ag16
ag11
ag24
ag7
aS'.'
ag15
ag24
ag10
ag21
ag13
aS'.'
ag6
ag5
ag15
ag24
ag3
aS'.'
ag15
ag16
ag8
ag24
ag5
aS'.'
ag8
ag21
ag14
ag24
ag5
aS'.'
ag11
ag24
ag5
ag2
ag12
aS'.'
ag19
ag24
ag3
ag22
ag2
aS'.'
ag10
ag9
ag11
ag24
ag12
aS'.'
ag19
ag24
ag22
ag2
ag3
aS'.'
ag2
ag24
ag13
ag23
ag19
aS'.'
ag8
ag24
ag21
ag19
ag12
aS'.'
ag10
ag24
ag19
ag22
ag5
aS'.'
ag11
ag24
ag20
ag11
ag5
aS'.'
ag15
ag24
ag22
ag11
ag3
aS'.'
ag19
ag24
ag16
ag4
ag17
aS'.'
ag11
ag24
ag5
ag21
ag19
aS'.'
ag15
ag24
ag16
ag16
ag14
aS'.'
ag14
ag9
ag10
ag24
ag12
aS'.'
ag15
ag24
ag22
ag19
ag3
aS'.'
ag14
ag24
ag12
ag5
ag19
aS'.'
ag18
ag24
ag16
ag8
ag16
aS'.'
ag6
ag21
ag2
ag24
ag3
aS'.'
ag18
ag23
ag8
ag24
ag12
aS'.'
ag15
ag13
ag2
ag24
ag13
aS'.'
ag6
ag9
ag2
ag24
ag16
aS'.'
ag14
ag9
ag14
ag24
ag9
aS'.'
ag10
ag24
ag5
ag5
ag6
aS'.'
ag8
ag24
ag18
ag23
ag7
aS'.'
ag10
ag24
ag12
ag9
ag10
aS'.'
ag10
ag24
ag9
ag5
ag4
aS'.'
ag19
ag24
ag15
ag23
ag3
aS'.'
ag11
ag24
ag11
ag21
ag7
aS'.'
ag18
ag24
ag16
ag19
ag3
aS'.'
ag18
ag24
ag22
ag19
ag3
aS'.'
ag15
ag24
ag23
ag15
ag13
aS'.'
ag11
ag24
ag9
ag9
ag18
aS'.'
ag15
ag24
ag23
ag6
ag3
aS'.'
ag8
ag24
ag21
ag18
ag7
aS'.'
ag19
ag16
ag15
ag24
ag13
aS'.'
ag11
ag21
ag2
ag24
ag17
aS'.'
ag8
ag24
ag7
ag9
ag4
aS'.'
ag10
ag20
ag8
ag24
ag9
aS'.'
ag2
ag24
ag16
ag22
ag11
aS'.'
ag19
ag24
ag13
ag2
ag17
aS'.'
ag11
ag24
ag9
ag20
ag14
aS'.'
ag15
ag24
ag22
ag4
ag16
aS'.'
ag11
ag24
ag10
ag21
ag5
aS'.'
ag8
ag5
ag15
ag24
ag17
aS'.'
ag19
ag24
ag16
ag22
ag14
aS'.'
ag14
ag24
ag5
ag9
ag15
aS'.'
ag10
ag24
ag10
ag21
ag5
aS'.'
ag11
ag24
ag20
ag15
ag12
aS'.'
ag19
ag24
ag13
ag16
ag19
aS'.'
ag2
ag24
ag16
ag22
ag10
aS'.'
ag19
ag24
ag19
ag22
ag13
aS'.'
ag8
ag24
ag15
ag22
ag12
aS'.'
ag10
ag24
ag7
ag9
ag11
aS'.'
ag11
ag24
ag15
ag22
ag7
aS'.'
ag15
ag24
ag6
ag21
ag17
aS'.'
ag19
ag24
ag18
ag22
ag13
aS'.'
ag2
ag24
ag3
ag23
ag4
aS'.'
ag11
ag24
ag5
ag6
ag5
aS'.'
ag2
ag24
ag17
ag13
ag10
aS'.'
ag15
ag24
ag3
ag23
ag14
aS'.'
ag11
ag5
ag18
ag24
ag13
aS'.'
ag11
ag24
ag9
ag4
ag5
aS'.'
ag11
ag20
ag15
ag24
ag3
aS'.'
ag2
ag24
ag17
ag22
ag15
aS'.'
ag8
ag24
ag8
ag21
ag7
aS'.'
ag2
ag24
ag14
ag21
ag3
aS'.'
ag18
ag24
ag16
ag19
ag3
aS'.'
ag11
ag24
ag5
ag20
ag14
aS'.'
ag10
ag24
ag9
ag8
ag12
aS'.'
ag11
ag20
ag15
ag24
ag16
aS'.'
ag15
ag22
ag11
ag24
ag12
aS'.'
ag4
ag21
ag2
ag24
ag13
aS'.'
ag18
ag24
ag16
ag10
ag16
aS'.'
ag18
ag24
ag22
ag11
ag13
aS'.'
ag15
ag24
ag23
ag2
ag3
aS'.'
ag18
ag24
ag23
ag4
ag16
aS'.'
ag19
ag24
ag23
ag10
ag13
aS'.'
ag10
ag24
ag20
ag14
ag12
aS'.'
ag10
ag24
ag20
ag14
ag12
aS'.'
ag15
ag24
ag13
ag23
ag8
aS'.'
ag19
ag24
ag16
ag2
ag16
aS'.'
ag18
ag24
ag3
ag13
ag2
aS'.'
ag10
ag24
ag10
ag21
ag9
aS'.'
ag11
ag24
ag20
ag6
ag5
aS'.'
ag10
ag24
ag12
ag5
ag8
aS'.'
ag2
ag24
ag3
ag13
ag11
aS'.'
ag15
ag24
ag14
ag21
ag13
aS'.'
ag10
ag24
ag9
ag21
ag15
aS'.'
ag2
ag13
ag2
ag24
ag13
aS'.'
ag8
ag24
ag9
ag11
ag7
aS'.'
ag14
ag24
ag12
ag21
ag11
aS'.'
ag19
ag24
ag13
ag8
ag3
aS'.'
ag14
ag24
ag21
ag18
ag12
aS'.'
ag19
ag24
ag13
ag23
ag14
aS'.'
ag19
ag22
ag15
ag24
ag3
aS'.'
ag2
ag24
ag13
ag22
ag11
aS'.'
ag2
ag24
ag16
ag18
ag13
aS'.'
ag15
ag24
ag10
ag20
ag3
aS'.'
ag19
ag24
ag16
ag22
ag11
aS'.'
ag14
ag24
ag5
ag11
ag12
aS'.'
ag15
ag24
ag16
ag22
ag8
aS'.'
ag15
ag23
ag19
ag24
ag3
aS'.'
ag6
ag5
ag14
ag24
ag9
aS'.'
ag19
ag24
ag13
ag11
ag13
aS'.'
ag15
ag24
ag3
ag13
ag2
aS'.'
ag2
ag24
ag14
ag20
ag17
aS'.'
ag15
ag22
ag11
ag24
ag7
aS'.'
ag2
ag24
ag16
ag16
ag14
aS'.'
ag14
ag24
ag6
ag21
ag7
aS'.'
ag10
ag21
ag10
ag24
ag9
aS'.'
ag8
ag21
ag2
ag24
ag3
aS'.'
ag8
ag24
ag18
ag22
ag9
aS'.'
ag18
ag24
ag4
ag21
ag3
aS'.'
ag19
ag22
ag8
ag24
ag7
aS'.'
ag14
ag24
ag4
ag21
ag7
aS'.'
ag18
ag24
ag22
ag19
ag17
aS'.'
ag11
ag24
ag9
ag21
ag19
aS'.'
ag10
ag24
ag9
ag8
ag7
aS'.'
ag14
ag24
ag19
ag23
ag12
aS'.'
ag18
ag24
ag13
ag16
ag19
aS'.'
ag14
ag24
ag2
ag23
ag5
aS'.'
ag10
ag24
ag21
ag18
ag9
aS'.'
ag11
ag24
ag7
ag20
ag6
aS'.'
ag14
ag21
ag2
ag24
ag17
aS'.'
ag10
ag24
ag5
ag9
ag2
aS'.'
ag11
ag9
ag10
ag24
ag9
aS'.'
ag11
ag24
ag20
ag8
ag7
aS'.'
ag19
ag24
ag17
ag13
ag14
aS'.'
ag18
ag24
ag13
ag22
ag4
aS'.'
ag18
ag24
ag22
ag6
ag17
aS'.'
ag8
ag5
ag19
ag24
ag13
aS'.'
ag19
ag24
ag19
ag23
ag13
aS'.'
ag2
ag24
ag23
ag6
ag16
aS'.'
ag2
ag24
ag4
ag21
ag3
aS'.'
ag8
ag24
ag20
ag8
ag9
aS'.'
ag6
ag21
ag18
ag24
ag13
aS'.'
ag18
ag22
ag19
ag24
ag16
aS'.'
ag8
ag24
ag5
ag14
ag9
aS'.'
ag19
ag24
ag3
ag16
ag10
aS'.'
ag4
ag5
ag19
ag24
ag17
aS'.'
ag10
ag24
ag5
ag20
ag15
aS'.'
ag15
ag24
ag13
ag22
ag14
aS'.'
ag10
ag24
ag15
ag22
ag9
aS'.'
ag2
ag16
ag8
ag24
ag5
aS'.'
ag14
ag24
ag7
ag9
ag14
aS'.'
ag11
ag24
ag9
ag18
ag9
aS'.'
ag8
ag24
ag6
ag21
ag7
aS'.'
ag10
ag24
ag9
ag2
ag5
aS'.'
ag11
ag9
ag19
ag24
ag13
aS'.'
ag10
ag20
ag19
ag24
ag3
aS'.'
ag8
ag20
ag19
ag24
ag13
aS'.'
ag19
ag24
ag23
ag4
ag3
aS'.'
ag14
ag24
ag9
ag21
ag15
aS'.'
ag6
ag9
ag19
ag24
ag13
aS'.'
ag10
ag9
ag19
ag24
ag3
aS'.'
ag8
ag24
ag5
ag5
ag11
aS'.'
ag10
ag24
ag9
ag5
ag6
aS'.'
ag8
ag24
ag9
ag11
ag5
aS'.'
ag14
ag9
ag14
ag24
ag9
aS'.'
ag8
ag24
ag9
ag18
ag7
aS'.'
ag11
ag24
ag12
ag21
ag4
aS'.'
ag15
ag24
ag13
ag23
ag19
aS'.'
ag4
ag5
ag15
ag24
ag3
aS'.'
ag19
ag24
ag16
ag4
ag3
aS'.'
ag11
ag24
ag12
ag21
ag18
aS'.'
ag15
ag23
ag15
ag24
ag13
aS'.'
ag2
ag23
ag2
ag24
ag16
aS'.'
ag10
ag24
ag21
ag19
ag12
aS'.'
ag11
ag24
ag12
ag21
ag2
aS'.'
ag18
ag23
ag14
ag24
ag12
aS'.'
ag18
ag16
ag15
ag24
ag16
aS'.'
ag11
ag5
ag19
ag24
ag3
aS'.'
ag10
ag24
ag5
ag2
ag9
aS'.'
ag15
ag24
ag15
ag22
ag13
aS'.'
ag2
ag24
ag16
ag11
ag3
aS'.'
ag18
ag24
ag16
ag8
ag16
aS'.'
ag2
ag24
ag2
ag23
ag3
aS'.'
ag18
ag24
ag4
ag20
ag17
aS'.'
ag11
ag24
ag5
ag9
ag11
aS'.'
ag11
ag24
ag8
ag21
ag9
aS'.'
ag10
ag24
ag12
ag9
ag6
aS'.'
ag8
ag21
ag15
ag24
ag13
aS'.'
ag15
ag24
ag23
ag18
ag16
aS'.'
ag8
ag5
ag14
ag24
ag9
aS'.'
ag18
ag24
ag13
ag16
ag18
aS'.'
ag19
ag24
ag13
ag10
ag3
aS'.'
ag15
ag16
ag11
ag24
ag9
aS'.'
ag11
ag24
ag20
ag2
ag12
aS'.'
ag18
ag24
ag16
ag14
ag16
aS'.'
ag14
ag24
ag20
ag15
ag5
aS'.'
ag15
ag13
ag2
ag24
ag3
aS'.'
ag18
ag24
ag16
ag4
ag13
aS'.'
ag18
ag24
ag16
ag4
ag3
aS'.'
ag14
ag24
ag7
ag9
ag18
aS'.'
ag10
ag24
ag9
ag8
ag5
aS'.'
ag19
ag24
ag3
ag22
ag6
aS'.'
ag15
ag13
ag8
ag24
ag5
aS'.'
ag15
ag13
ag14
ag24
ag7
aS'.'
ag10
ag24
ag5
ag19
ag7
aS'.'
ag11
ag24
ag21
ag14
ag5
aS'.'
ag11
ag24
ag7
ag20
ag6
aS'.'
ag4
ag21
ag11
ag24
ag12
aS'.'
ag14
ag9
ag10
ag24
ag12
aS'.'
ag15
ag24
ag22
ag14
ag13
aS'.'
ag14
ag24
ag5
ag10
ag12
aS'.'
ag18
ag24
ag16
ag11
ag17
aS'.'
ag18
ag24
ag3
ag16
ag11
aS'.'
ag11
ag24
ag9
ag11
ag9
aS'.'
ag8
ag9
ag11
ag24
ag12
aS'.'
ag19
ag24
ag23
ag6
ag16
aS'.'
ag14
ag24
ag12
ag9
ag14
aS'.'
ag11
ag24
ag20
ag11
ag9
aS'.'
ag19
ag24
ag16
ag23
ag8
aS'.'
ag8
ag24
ag5
ag5
ag2
aS'.'
ag19
ag24
ag15
ag23
ag3
aS'.'
ag14
ag21
ag19
ag24
ag13
aS'.'
ag14
ag24
ag8
ag21
ag7
aS'.'
ag14
ag9
ag10
ag24
ag9
aS'.'
ag14
ag24
ag5
ag14
ag12
aS'.'
ag8
ag24
ag5
ag20
ag8
aS'.'
ag8
ag24
ag11
ag21
ag7
aS'.'
ag6
ag9
ag8
ag24
ag7
aS'.'
ag15
ag24
ag16
ag22
ag6
aS'.'
ag14
ag24
ag9
ag18
ag5
aS'.'
ag14
ag24
ag7
ag21
ag11
aS'.'
ag4
ag5
ag8
ag24
ag5
aS'.'
ag19
ag24
ag3
ag16
ag18
aS'.'
ag18
ag13
ag15
ag24
ag13
aS'.'
ag19
ag24
ag19
ag23
ag17
aS'.'
ag15
ag24
ag3
ag13
ag15
aS'.'
ag19
ag24
ag4
ag21
ag3
aS'.'
ag8
ag24
ag21
ag11
ag5
aS'.'
ag18
ag23
ag10
ag24
ag12
aS'.'
ag18
ag13
ag19
ag24
ag13
aS'.'
ag14
ag9
ag14
ag24
ag5
aS'.'
ag10
ag9
ag19
ag24
ag13
aS'.'
ag4
ag21
ag14
ag24
ag5
aS'.'
ag11
ag24
ag15
ag23
ag7
aS'.'
ag15
ag24
ag3
ag16
ag4
aS'.'
ag8
ag9
ag19
ag24
ag17
aS'.'
ag19
ag24
ag16
ag14
ag17
aS'.'
ag14
ag24
ag5
ag2
ag7
aS'.'
ag2
ag24
ag3
ag23
ag15
aS'.'
ag2
ag13
ag8
ag24
ag5
aS'.'
ag8
ag20
ag8
ag24
ag5
aS'.'
ag14
ag24
ag5
ag21
ag6
aS'.'
ag8
ag24
ag7
ag20
ag4
aS'.'
ag14
ag24
ag5
ag10
ag12
aS'.'
ag11
ag9
ag19
ag24
ag17
aS'.'
ag19
ag24
ag13
ag13
ag2
aS'.'
ag15
ag24
ag13
ag10
ag16
aS'.'
ag10
ag24
ag5
ag4
ag9
aS'.'
ag18
ag13
ag2
ag24
ag16
aS'.'
ag14
ag20
ag19
ag24
ag13
aS'.'
ag18
ag24
ag4
ag21
ag16
aS'.'
ag11
ag5
ag2
ag24
ag16
aS'.'
ag2
ag24
ag16
ag18
ag3
aS'.'
ag11
ag24
ag21
ag6
ag12
aS'.'
ag10
ag9
ag8
ag24
ag7
aS'.'
ag8
ag24
ag7
ag9
ag2
aS'.'
ag8
ag5
ag18
ag24
ag17
aS'.'
ag10
ag24
ag20
ag6
ag9
aS'.'
ag15
ag16
ag10
ag24
ag12
aS'.'
ag14
ag9
ag11
ag24
ag12
aS'.'
ag2
ag13
ag15
ag24
ag3
aS'.'
ag11
ag20
ag11
ag24
ag9
aS'.'
ag2
ag24
ag16
ag23
ag8
aS'.'
ag2
ag22
ag19
ag24
ag3
aS'.'
ag18
ag24
ag13
ag23
ag2
aS'.'
ag10
ag24
ag7
ag21
ag19
aS'.'
ag10
ag5
ag18
ag24
ag13
aS'.'
ag10
ag20
ag18
ag24
ag13
aS'.'
ag6
ag9
ag14
ag24
ag7
aS'.'
ag14
ag24
ag18
ag23
ag12
aS'.'
ag2
ag16
ag2
ag24
ag17
aS'.'
ag11
ag24
ag20
ag18
ag12
aS'.'
ag14
ag24
ag20
ag10
ag5
aS'.'
ag18
ag16
ag15
ag24
ag3
aS'.'
ag19
ag24
ag17
ag23
ag18
aS'.'
ag18
ag24
ag13
ag16
ag18
aS'.'
ag2
ag24
ag18
ag22
ag13
aS'.'
ag8
ag24
ag18
ag23
ag9
aS'.'
ag19
ag24
ag16
ag22
ag15
aS'.'
ag10
ag21
ag15
ag24
ag13
aS'.'
ag10
ag24
ag9
ag19
ag7
aS'.'
ag18
ag24
ag17
ag13
ag8
aS'.'
ag19
ag24
ag23
ag2
ag16
aS'.'
ag18
ag24
ag6
ag20
ag3
aS'.'
ag14
ag24
ag9
ag5
ag19
aS'.'
ag14
ag24
ag5
ag14
ag7
aS'.'
ag8
ag24
ag12
ag9
ag15
aS'.'
ag2
ag24
ag23
ag15
ag3
aS'.'
ag10
ag21
ag19
ag24
ag16
aS'.'
ag19
ag23
ag18
ag24
ag17
aS'.'
ag8
ag24
ag5
ag20
ag19
aS'.'
ag14
ag24
ag21
ag14
ag9
aS'.'
ag18
ag24
ag17
ag13
ag4
aS'.'
ag11
ag24
ag5
ag8
ag9
aS'.'
ag10
ag24
ag21
ag2
ag7
aS'.'
ag14
ag24
ag9
ag5
ag11
aS'.'
ag14
ag24
ag12
ag20
ag10
aS'.'
ag2
ag24
ag17
ag22
ag10
aS'.'
ag14
ag24
ag19
ag22
ag12
aS'.'
ag14
ag24
ag5
ag19
ag12
aS'.'
ag19
ag13
ag18
ag24
ag17
aS'.'
ag11
ag24
ag12
ag21
ag14
aS'.'
ag8
ag24
ag5
ag20
ag15
aS'.'
ag2
ag24
ag6
ag21
ag17
aS'.'
ag11
ag24
ag9
ag21
ag2
aS'.'
ag19
ag24
ag16
ag15
ag16
aS'.'
ag10
ag24
ag9
ag20
ag2
aS'.'
ag14
ag24
ag5
ag5
ag6
aS'.'
ag15
ag24
ag23
ag11
ag16
aS'.'
ag11
ag24
ag20
ag2
ag12
aS'.'
ag10
ag24
ag5
ag20
ag15
aS'.'
ag8
ag24
ag9
ag9
ag14
aS'.'
ag8
ag24
ag9
ag14
ag12
aS'.'
ag2
ag24
ag22
ag15
ag16
aS'.'
ag15
ag24
ag17
ag16
ag8
aS'.'
ag2
ag24
ag22
ag11
ag17
aS'.'
ag2
ag22
ag15
ag24
ag16
aS'.'
ag15
ag13
ag10
ag24
ag12
aS'.'
ag8
ag24
ag21
ag8
ag5
aS'.'
ag10
ag21
ag15
ag24
ag3
aS'.'
ag19
ag24
ag16
ag16
ag15
aS'.'
ag2
ag24
ag13
ag13
ag10
aS'.'
ag2
ag24
ag16
ag22
ag11
aS'.'
ag19
ag24
ag23
ag2
ag16
aS'.'
ag18
ag24
ag23
ag8
ag3
aS'.'
ag18
ag24
ag22
ag2
ag13
aS'.'
ag18
ag24
ag16
ag18
ag17
aS'.'
ag18
ag24
ag13
ag22
ag10
aS'.'
ag14
ag24
ag7
ag20
ag2
aS'.'
ag14
ag24
ag21
ag19
ag5
aS'.'
ag6
ag9
ag19
ag24
ag3
aS'.'
ag18
ag24
ag17
ag16
ag2
aS'.'
ag6
ag20
ag8
ag24
ag12
aS'.'
ag15
ag22
ag2
ag24
ag3
aS'.'
ag2
ag24
ag23
ag2
ag3
aS'.'
ag8
ag5
ag11
ag24
ag12
aS'.'
ag11
ag24
ag9
ag21
ag15
aS'.'
ag15
ag24
ag16
ag2
ag16
aS'.'
ag15
ag24
ag16
ag11
ag17
aS'.'
ag14
ag24
ag9
ag8
ag12
aS'.'
ag15
ag24
ag16
ag15
ag17
aS'.'
ag2
ag16
ag14
ag24
ag12
aS'.'
ag2
ag23
ag14
ag24
ag12
aS'.'
ag11
ag24
ag21
ag11
ag12
aS'.'
ag15
ag24
ag23
ag8
ag17
aS'.'
ag2
ag24
ag13
ag16
ag6
aS'.'
ag19
ag13
ag18
ag24
ag17
aS'.'
ag19
ag24
ag22
ag14
ag16
aS'.'
ag14
ag24
ag9
ag5
ag11
aS'.'
ag14
ag5
ag14
ag24
ag12
aS'.'
ag4
ag20
ag8
ag24
ag5
aS'.'
ag19
ag24
ag19
ag22
ag16
aS'.'
ag8
ag5
ag15
ag24
ag17
aS'.'
ag11
ag24
ag6
ag21
ag5
aS'.'
ag10
ag24
ag20
ag2
ag5
aS'.'
ag15
ag24
ag23
ag6
ag13
aS'.'
ag18
ag13
ag11
ag24
ag9
aS'.'
ag8
ag24
ag12
ag5
ag19
aS'.'
ag2
ag24
ag22
ag15
ag3
aS'.'
ag15
ag22
ag19
ag24
ag13
aS'.'
ag14
ag24
ag12
ag9
ag10
aS'.'
ag15
ag24
ag23
ag8
ag3
aS'.'
ag8
ag24
ag21
ag19
ag9
aS'.'
ag18
ag24
ag13
ag16
ag18
aS'.'
ag19
ag24
ag22
ag19
ag16
aS'.'
ag14
ag24
ag12
ag9
ag19
aS'.'
ag19
ag24
ag23
ag18
ag17
aS'.'
ag18
ag24
ag3
ag13
ag15
aS'.'
ag10
ag24
ag20
ag2
ag12
aS'.'
ag8
ag24
ag20
ag4
ag5
aS'.'
ag19
ag22
ag8
ag24
ag12
aS'.'
ag15
ag22
ag10
ag24
ag12
aS'.'
ag15
ag24
ag16
ag13
ag18
aS'.'
ag10
ag24
ag9
ag21
ag4
aS'.'
ag15
ag24
ag13
ag13
ag18
aS'.'
ag10
ag24
ag5
ag21
ag2
aS'.'
ag18
ag24
ag14
ag21
ag17
aS'.'
ag11
ag24
ag9
ag9
ag19
aS'.'
ag15
ag24
ag3
ag23
ag19
aS'.'
ag15
ag24
ag3
ag16
ag14
aS'.'
ag8
ag24
ag7
ag9
ag14
aS'.'
ag8
ag24
ag9
ag5
ag15
aS'.'
ag18
ag24
ag13
ag11
ag16
aS'.'
ag10
ag24
ag21
ag4
ag9
aS'.'
ag18
ag24
ag15
ag23
ag17
aS'.'
ag18
ag24
ag23
ag6
ag13
aS'.'
ag11
ag24
ag7
ag9
ag4
aS'.'
ag15
ag24
ag16
ag16
ag18
aS'.'
ag11
ag24
ag21
ag18
ag5
aS'.'
ag15
ag24
ag13
ag23
ag8
aS'.'
ag19
ag24
ag16
ag23
ag19
aS'.'
ag19
ag24
ag16
ag22
ag18
aS'.'
ag4
ag9
ag10
ag24
ag5
aS'.'
ag10
ag24
ag5
ag20
ag15
aS'.'
ag10
ag24
ag9
ag6
ag5
aS'.'
ag2
ag24
ag13
ag16
ag19
aS'.'
ag8
ag24
ag7
ag20
ag2
aS'.'
ag19
ag24
ag3
ag13
ag15
aS'.'
ag2
ag24
ag23
ag11
ag13
aS'.'
ag10
ag24
ag5
ag6
ag5
aS'.'
ag14
ag24
ag12
ag5
ag15
aS'.'
ag2
ag24
ag17
ag23
ag11
aS'.'
ag11
ag24
ag5
ag21
ag4
aS'.'
ag2
ag16
ag18
ag24
ag3
aS'.'
ag8
ag24
ag12
ag20
ag14
aS'.'
ag8
ag21
ag10
ag24
ag7
aS'.'
ag10
ag24
ag9
ag20
ag2
aS'.'
ag2
ag24
ag16
ag15
ag3
aS'.'
ag18
ag23
ag18
ag24
ag13
aS'.'
ag2
ag22
ag8
ag24
ag7
aS'.'
ag6
ag21
ag11
ag24
ag9
aS'.'
ag10
ag24
ag20
ag10
ag7
aS'.'
ag8
ag20
ag11
ag24
ag5
aS'.'
ag18
ag24
ag17
ag23
ag10
aS'.'
ag11
ag24
ag12
ag5
ag4
aS'.'
ag10
ag24
ag9
ag14
ag7
aS'.'
ag2
ag24
ag16
ag13
ag6
aS'.'
ag8
ag24
ag9
ag5
ag19
aS'.'
ag14
ag24
ag5
ag5
ag2
aS'.'
ag11
ag24
ag9
ag5
ag15
aS'.'
ag19
ag16
ag19
ag24
ag16
aS'.'
ag15
ag16
ag11
ag24
ag9
aS'.'
ag8
ag24
ag9
ag21
ag6
aS'.'
ag10
ag24
ag5
ag18
ag12
aS'.'
ag10
ag24
ag12
ag5
ag11
aS'.'
ag8
ag24
ag20
ag8
ag5
aS'.'
ag8
ag24
ag21
ag11
ag9
aS'.'
ag8
ag24
ag9
ag19
ag5
aS'.'
ag10
ag24
ag5
ag9
ag15
aS'.'
ag14
ag24
ag12
ag9
ag2
aS'.'
ag14
ag24
ag6
ag21
ag7
aS'.'
ag8
ag24
ag9
ag15
ag7
aS'.'
ag14
ag5
ag10
ag24
ag9
aS'.'
ag4
ag9
ag18
ag24
ag17
aS'.'
ag8
ag5
ag15
ag24
ag17
aS'.'
ag10
ag24
ag20
ag19
ag9
aS'.'
ag8
ag24
ag5
ag18
ag9
aS'.'
ag14
ag24
ag7
ag5
ag19
aS'.'
ag2
ag24
ag16
ag16
ag6
aS'.'
ag15
ag24
ag3
ag13
ag15
aS'.'
ag15
ag24
ag14
ag21
ag17
aS'.'
ag10
ag24
ag9
ag15
ag7
aS'.'
ag8
ag24
ag9
ag14
ag7
aS'.'
ag10
ag20
ag2
ag24
ag17
aS'.'
ag19
ag24
ag3
ag23
ag18
aS'.'
ag19
ag24
ag16
ag13
ag4
aS'.'
ag10
ag21
ag8
ag24
ag5
aS'.'
ag8
ag24
ag5
ag11
ag7
aS'.'
ag2
ag24
ag13
ag22
ag6
aS'.'
ag11
ag24
ag21
ag8
ag12
aS'.'
ag11
ag24
ag12
ag5
ag14
aS'.'
ag14
ag24
ag12
ag20
ag11
aS'.'
ag11
ag24
ag12
ag9
ag15
aS'.'
ag19
ag13
ag19
ag24
ag3
aS'.'
ag15
ag13
ag19
ag24
ag16
aS'.'
ag11
ag9
ag19
ag24
ag13
aS'.'
ag2
ag24
ag23
ag14
ag3
aS'.'
ag15
ag23
ag18
ag24
ag3
aS'.'
ag19
ag24
ag13
ag2
ag16
aS'.'
ag11
ag9
ag15
ag24
ag13
aS'.'
ag19
ag24
ag15
ag23
ag13
aS'.'
ag18
ag13
ag15
ag24
ag16
aS'.'
ag2
ag24
ag23
ag15
ag17
aS'.'
ag15
ag24
ag16
ag23
ag11
aS'.'
ag6
ag20
ag14
ag24
ag12
aS'.'
ag10
ag20
ag19
ag24
ag16
aS'.'
ag11
ag24
ag9
ag15
ag9
aS'.'
ag14
ag24
ag9
ag2
ag12
aS'.'
ag8
ag24
ag9
ag4
ag9
aS'.'
ag11
ag24
ag20
ag6
ag5
aS'.'
ag14
ag24
ag9
ag19
ag7
aS'.'
ag11
ag20
ag8
ag24
ag12
aS'.'
ag2
ag24
ag3
ag16
ag2
aS'.'
ag14
ag5
ag8
ag24
ag7
aS'.'
ag4
ag5
ag11
ag24
ag5
aS'.'
ag14
ag24
ag18
ag23
ag5
aS'.'
ag15
ag24
ag23
ag4
ag13
aS'.'
ag14
ag24
ag21
ag14
ag7
aS'.'
ag2
ag24
ag13
ag16
ag8
aS'.'
ag18
ag23
ag19
ag24
ag13
aS'.'
ag18
ag24
ag22
ag6
ag3
aS'.'
ag10
ag24
ag21
ag15
ag12
aS'.'
ag18
ag24
ag13
ag22
ag6
aS'.'
ag8
ag24
ag7
ag20
ag4
aS'.'
ag19
ag24
ag3
ag16
ag14
aS'.'
ag18
ag24
ag13
ag23
ag6
aS'.'
ag11
ag24
ag12
ag9
ag14
aS'.'
ag15
ag24
ag17
ag13
ag18
aS'.'
ag2
ag24
ag17
ag22
ag11
aS'.'
ag11
ag24
ag5
ag21
ag8
aS'.'
ag14
ag20
ag15
ag24
ag17
aS'.'
ag19
ag24
ag13
ag10
ag13
aS'.'
ag8
ag24
ag12
ag9
ag2
aS'.'
ag8
ag24
ag5
ag19
ag7
aS'.'
ag18
ag24
ag16
ag8
ag13
aS'.'
ag8
ag5
ag10
ag24
ag12
aS'.'
ag18
ag24
ag23
ag6
ag13
aS'.'
ag8
ag24
ag21
ag6
ag7
aS'.'
ag8
ag24
ag21
ag15
ag12
aS'.'
ag18
ag24
ag3
ag22
ag4
aS'.'
ag2
ag24
ag13
ag13
ag19
aS'.'
ag6
ag5
ag11
ag24
ag12
aS'.'
ag10
ag9
ag18
ag24
ag17
aS'.'
ag15
ag22
ag15
ag24
ag3
aS'.'
ag2
ag13
ag18
ag24
ag13
aS'.'
ag10
ag24
ag12
ag9
ag4
aS'.'
ag2
ag24
ag22
ag11
ag17
aS'.'
ag18
ag24
ag13
ag13
ag10
aS'.'
ag10
ag24
ag20
ag14
ag5
aS'.'
ag19
ag24
ag22
ag11
ag3
aS'.'
ag4
ag21
ag18
ag24
ag13
aS'.'
ag15
ag24
ag17
ag23
ag15
aS'.'
ag19
ag24
ag15
ag22
ag3
aS'.'
ag14
ag20
ag15
ag24
ag13
aS'.'
ag11
ag20
ag19
ag24
ag3
aS'.'
ag2
ag24
ag13
ag15
ag17
aS'.'
ag2
ag22
ag19
ag24
ag16
aS'.'
ag2
ag24
ag13
ag23
ag4
aS'.'
ag10
ag24
ag7
ag5
ag18
aS'.'
ag14
ag21
ag10
ag24
ag9
aS'.'
ag19
ag24
ag22
ag10
ag13
aS'.'
ag14
ag20
ag14
ag24
ag7
aS'.'
ag15
ag16
ag11
ag24
ag7
aS'.'
ag18
ag24
ag16
ag16
ag14
aS'.'
ag10
ag24
ag12
ag9
ag14
aS'.'
ag15
ag24
ag22
ag2
ag17
aS'.'
ag2
ag24
ag13
ag19
ag3
aS'.'
ag10
ag24
ag12
ag5
ag4
aS'.'
ag10
ag24
ag11
ag21
ag9
aS'.'
ag2
ag24
ag17
ag16
ag2
aS'.'
ag18
ag24
ag16
ag18
ag17
aS'.'
ag15
ag24
ag16
ag23
ag10
aS'.'
ag11
ag24
ag9
ag8
ag5
aS'.'
ag10
ag24
ag9
ag21
ag10
aS'.'
ag11
ag24
ag11
ag21
ag7
aS'.'
ag19
ag24
ag17
ag22
ag10
aS'.'
ag4
ag21
ag14
ag24
ag12
aS'.'
ag11
ag24
ag12
ag20
ag18
aS'.'
ag11
ag24
ag12
ag5
ag15
aS'.'
ag10
ag21
ag10
ag24
ag9
aS'.'
ag10
ag24
ag8
ag20
ag12
aS'.'
ag11
ag24
ag9
ag10
ag12
aS'.'
ag2
ag16
ag14
ag24
ag5
aS'.'
ag15
ag24
ag8
ag21
ag16
aS'.'
ag11
ag20
ag2
ag24
ag16
aS'.'
ag11
ag5
ag15
ag24
ag17
aS'.'
ag15
ag24
ag17
ag23
ag4
aS'.'
ag15
ag16
ag11
ag24
ag7
aS'.'
ag2
ag24
ag16
ag22
ag19
aS'.'
ag15
ag24
ag16
ag18
ag16
aS'.'
ag19
ag24
ag3
ag13
ag8
aS'.'
ag8
ag5
ag15
ag24
ag13
aS'.'
ag15
ag24
ag6
ag20
ag16
aS'.'
ag14
ag24
ag9
ag8
ag12
aS'.'
ag2
ag24
ag13
ag18
ag3
aS'.'
ag18
ag24
ag16
ag6
ag16
aS'.'
ag15
ag24
ag22
ag2
ag16
aS'.'
ag15
ag24
ag19
ag22
ag13
aS'.'
ag2
ag24
ag11
ag20
ag16
aS'.'
ag8
ag24
ag10
ag21
ag7
aS'.'
ag11
ag24
ag21
ag8
ag5
aS'.'
ag14
ag24
ag5
ag19
ag5
aS'.'
ag10
ag5
ag2
ag24
ag17
aS'.'
ag11
ag21
ag8
ag24
ag9
aS'.'
ag15
ag23
ag19
ag24
ag16
aS'.'
ag2
ag24
ag13
ag18
ag3
aS'.'
ag8
ag24
ag6
ag20
ag5
aS'.'
ag8
ag24
ag12
ag21
ag8
aS'.'
ag8
ag24
ag2
ag22
ag12
aS'.'
ag19
ag24
ag8
ag20
ag16
aS'.'
ag14
ag5
ag15
ag24
ag17
aS'.'
ag10
ag24
ag9
ag2
ag7
aS'.'
ag2
ag13
ag11
ag24
ag12
aS'.'
ag10
ag24
ag7
ag9
ag4
aS'.'
ag15
ag24
ag13
ag6
ag17
aS'.'
ag11
ag24
ag9
ag20
ag10
aS'.'
ag8
ag20
ag18
ag24
ag13
aS'.'
ag6
ag21
ag14
ag24
ag9
aS'.'
ag11
ag24
ag20
ag2
ag5
aS'.'
ag19
ag24
ag17
ag22
ag4
aS'.'
ag11
ag24
ag7
ag5
ag8
aS'.'
ag15
ag24
ag18
ag23
ag16
aS'.'
ag18
ag24
ag3
ag16
ag18
aS'.'
ag19
ag24
ag17
ag16
ag4
aS'.'
ag19
ag24
ag16
ag2
ag3
aS'.'
ag2
ag24
ag13
ag16
ag18
aS'.'
ag19
ag13
ag19
ag24
ag17
aS'.'
ag19
ag24
ag6
ag20
ag17
aS'.'
ag18
ag22
ag18
ag24
ag16
aS'.'
ag10
ag24
ag11
ag21
ag9
aS'.'
ag19
ag24
ag18
ag22
ag17
aS'.'
ag14
ag24
ag5
ag9
ag10
aS'.'
ag2
ag24
ag22
ag2
ag13
aS'.'
ag19
ag22
ag2
ag24
ag13
aS'.'
ag8
ag24
ag9
ag11
ag9
aS'.'
ag11
ag24
ag14
ag20
ag12
aS'.'
ag2
ag24
ag11
ag21
ag3
aS'.'
ag18
ag24
ag13
ag10
ag13
aS'.'
ag10
ag24
ag21
ag4
ag5
aS'.'
ag2
ag23
ag19
ag24
ag16
aS'.'
ag11
ag24
ag7
ag9
ag11
aS'.'
ag2
ag24
ag16
ag19
ag17
aS'.'
ag15
ag24
ag19
ag22
ag3
aS'.'
ag11
ag21
ag18
ag24
ag16
aS'.'
ag6
ag9
ag15
ag24
ag3
aS'.'
ag11
ag24
ag19
ag23
ag9
aS'.'
ag18
ag24
ag17
ag16
ag6
aS'.'
ag14
ag24
ag14
ag20
ag5
aS'.'
ag11
ag24
ag9
ag5
ag18
aS'.'
ag8
ag24
ag21
ag19
ag12
aS'.'
ag15
ag24
ag23
ag15
ag13
aS'.'
ag2
ag24
ag13
ag2
ag17
aS'.'
ag11
ag21
ag19
ag24
ag17
aS'.'
ag11
ag24
ag5
ag15
ag9
aS'.'
ag19
ag22
ag15
ag24
ag3
aS'.'
ag19
ag24
ag13
ag14
ag17
aS'.'
ag8
ag24
ag7
ag5
ag10
aS'.'
ag14
ag21
ag19
ag24
ag16
aS'.'
ag19
ag16
ag10
ag24
ag7
aS'.'
ag10
ag24
ag20
ag4
ag9
aS'.'
ag8
ag24
ag20
ag6
ag9
aS'.'
ag18
ag24
ag23
ag15
ag16
aS'.'
ag18
ag24
ag8
ag20
ag13
aS'.'
ag15
ag24
ag13
ag15
ag3
aS'.'
ag18
ag24
ag8
ag21
ag16
aS'.'
ag10
ag24
ag20
ag18
ag7
aS'.'
ag11
ag21
ag10
ag24
ag7
aS'.'
ag11
ag24
ag7
ag20
ag15
aS'.'
ag4
ag9
ag18
ag24
ag16
aS'.'
ag2
ag23
ag8
ag24
ag5
aS'.'
ag2
ag24
ag17
ag23
ag14
aS'.'
ag19
ag24
ag13
ag22
ag18
aS'.'
ag18
ag24
ag8
ag20
ag17
aS'.'
ag11
ag24
ag5
ag5
ag4
aS'.'
ag15
ag24
ag22
ag15
ag3
aS'.'
ag19
ag13
ag19
ag24
ag13
aS'.'
ag8
ag5
ag18
ag24
ag16
aS'.'
ag19
ag24
ag16
ag11
ag13
aS'.'
ag14
ag9
ag8
ag24
ag5
aS'.'
ag18
ag24
ag13
ag14
ag13
aS'.'
ag18
ag24
ag22
ag4
ag16
aS'.'
ag14
ag9
ag11
ag24
ag7
aS'.'
ag8
ag24
ag4
ag21
ag5
ag4
aS'.'
ag18
ag24
ag23
ag6
ag22
ag8
aS'.'
ag10
ag5
ag10
ag24
ag9
ag2
aS'.'
ag10
ag9
ag10
ag24
ag4
ag20
aS'.'
ag18
ag24
ag22
ag4
ag23
ag2
aS'.'
ag2
ag24
ag14
ag21
ag22
ag2
aS'.'
ag15
ag23
ag14
ag24
ag4
ag20
aS'.'
ag14
ag20
ag15
ag24
ag23
ag6
aS'.'
ag15
ag24
ag16
ag19
ag16
ag10
aS'.'
ag10
ag9
ag14
ag24
ag14
ag20
aS'.'
ag19
ag16
ag2
ag24
ag8
ag21
aS'.'
ag11
ag24
ag20
ag6
ag9
ag6
aS'.'
ag8
ag9
ag2
ag24
ag22
ag2
aS'.'
ag15
ag24
ag2
ag23
ag22
ag10
aS'.'
ag15
ag24
ag13
ag4
ag23
ag11
aS'.'
ag11
ag24
ag5
ag4
ag20
ag19
aS'.'
ag11
ag5
ag2
ag24
ag16
ag8
aS'.'
ag18
ag24
ag8
ag20
ag13
ag19
aS'.'
ag15
ag24
ag18
ag23
ag23
ag8
aS'.'
ag8
ag9
ag2
ag24
ag19
ag23
aS'.'
ag4
ag21
ag2
ag24
ag22
ag2
aS'.'
ag14
ag24
ag14
ag21
ag20
ag4
aS'.'
ag15
ag23
ag8
ag24
ag5
ag6
aS'.'
ag10
ag24
ag21
ag2
ag20
ag11
aS'.'
ag18
ag13
ag8
ag24
ag9
ag11
aS'.'
ag18
ag22
ag8
ag24
ag20
ag18
aS'.'
ag10
ag9
ag19
ag24
ag2
ag22
aS'.'
ag8
ag24
ag14
ag21
ag9
ag19
aS'.'
ag2
ag13
ag19
ag24
ag16
ag6
aS'.'
ag18
ag16
ag15
ag24
ag22
ag8
aS'.'
ag15
ag23
ag14
ag24
ag8
ag20
aS'.'
ag18
ag24
ag13
ag8
ag23
ag8
aS'.'
ag15
ag24
ag10
ag21
ag16
ag6
aS'.'
ag11
ag24
ag9
ag18
ag20
ag10
aS'.'
ag14
ag24
ag20
ag15
ag9
ag6
aS'.'
ag4
ag5
ag2
ag24
ag15
ag23
aS'.'
ag11
ag24
ag6
ag21
ag21
ag10
aS'.'
ag19
ag24
ag8
ag20
ag22
ag4
aS'.'
ag11
ag9
ag19
ag24
ag23
ag6
aS'.'
ag18
ag24
ag22
ag11
ag22
ag19
aS'.'
ag18
ag22
ag18
ag24
ag19
ag23
aS'.'
ag2
ag24
ag6
ag21
ag16
ag19
aS'.'
ag2
ag24
ag13
ag4
ag22
ag4
aS'.'
ag8
ag24
ag20
ag2
ag20
ag11
aS'.'
ag2
ag24
ag11
ag20
ag22
ag14
aS'.'
ag14
ag24
ag20
ag4
ag9
ag11
aS'.'
ag19
ag24
ag16
ag4
ag16
ag11
aS'.'
ag19
ag24
ag16
ag15
ag23
ag6
aS'.'
ag8
ag20
ag10
ag24
ag5
ag8
aS'.'
ag19
ag13
ag18
ag24
ag22
ag2
aS'.'
ag10
ag20
ag15
ag24
ag22
ag15
aS'.'
ag2
ag24
ag23
ag10
ag22
ag19
aS'.'
ag8
ag9
ag19
ag24
ag11
ag20
aS'.'
ag11
ag9
ag19
ag24
ag6
ag20
aS'.'
ag8
ag24
ag5
ag18
ag21
ag2
aS'.'
ag10
ag24
ag21
ag2
ag20
ag4
aS'.'
ag11
ag24
ag18
ag22
ag5
ag4
aS'.'
ag19
ag16
ag18
ag24
ag22
ag10
aS'.'
ag10
ag21
ag8
ag24
ag19
ag22
aS'.'
ag10
ag20
ag8
ag24
ag5
ag19
aS'.'
ag11
ag24
ag5
ag11
ag9
ag18
aS'.'
ag14
ag24
ag5
ag19
ag5
ag18
aS'.'
ag2
ag24
ag16
ag2
ag16
ag19
aS'.'
ag19
ag13
ag2
ag24
ag22
ag19
aS'.'
ag18
ag23
ag14
ag24
ag2
ag22
aS'.'
ag10
ag24
ag21
ag14
ag20
ag14
aS'.'
ag14
ag5
ag19
ag24
ag23
ag14
aS'.'
ag18
ag23
ag14
ag24
ag9
ag19
aS'.'
ag15
ag24
ag16
ag6
ag16
ag19
aS'.'
ag2
ag24
ag2
ag22
ag16
ag8
aS'.'
ag8
ag24
ag9
ag8
ag5
ag4
aS'.'
ag10
ag24
ag9
ag10
ag21
ag4
aS'.'
ag11
ag24
ag9
ag14
ag21
ag15
aS'.'
ag8
ag24
ag9
ag6
ag5
ag8
aS'.'
ag11
ag21
ag14
ag24
ag9
ag8
aS'.'
ag14
ag24
ag20
ag8
ag9
ag2
aS'.'
ag18
ag24
ag16
ag8
ag23
ag14
aS'.'
ag4
ag9
ag18
ag24
ag23
ag14
aS'.'
ag19
ag24
ag23
ag14
ag13
ag10
aS'.'
ag14
ag24
ag5
ag6
ag20
ag19
aS'.'
ag4
ag21
ag11
ag24
ag20
ag19
aS'.'
ag2
ag23
ag15
ag24
ag22
ag11
aS'.'
ag4
ag20
ag15
ag24
ag13
ag11
aS'.'
ag2
ag13
ag18
ag24
ag13
ag2
aS'.'
ag14
ag24
ag9
ag18
ag9
ag8
aS'.'
ag8
ag24
ag21
ag15
ag20
ag14
aS'.'
ag10
ag24
ag14
ag20
ag20
ag15
aS'.'
ag15
ag24
ag23
ag8
ag23
ag11
aS'.'
ag11
ag24
ag5
ag11
ag20
ag4
aS'.'
ag4
ag21
ag11
ag24
ag9
ag6
aS'.'
ag4
ag21
ag11
ag24
ag5
ag8
aS'.'
ag2
ag13
ag15
ag24
ag6
ag20
aS'.'
ag14
ag21
ag18
ag24
ag16
ag4
aS'.'
ag4
ag5
ag8
ag24
ag9
ag18
aS'.'
ag19
ag22
ag8
ag24
ag11
ag20
aS'.'
ag8
ag24
ag21
ag6
ag20
ag18
aS'.'
ag19
ag24
ag2
ag23
ag23
ag15
aS'.'
ag15
ag16
ag19
ag24
ag16
ag4
aS'.'
ag10
ag21
ag18
ag24
ag23
ag10
aS'.'
ag11
ag24
ag9
ag6
ag9
ag19
aS'.'
ag19
ag24
ag23
ag10
ag23
ag11
aS'.'
ag2
ag24
ag11
ag20
ag16
ag10
aS'.'
ag18
ag24
ag8
ag20
ag23
ag2
aS'.'
ag8
ag20
ag8
ag24
ag21
ag11
aS'.'
ag8
ag24
ag21
ag10
ag5
ag2
aS'.'
ag8
ag24
ag21
ag8
ag5
ag2
aS'.'
ag11
ag24
ag21
ag6
ag21
ag6
aS'.'
ag18
ag24
ag13
ag8
ag23
ag6
aS'.'
ag19
ag24
ag16
ag10
ag23
ag15
aS'.'
ag11
ag24
ag2
ag22
ag20
ag10
aS'.'
ag19
ag16
ag18
ag24
ag13
ag10
aS'.'
ag2
ag24
ag13
ag8
ag23
ag10
aS'.'
ag11
ag24
ag2
ag23
ag20
ag14
aS'.'
ag15
ag13
ag14
ag24
ag9
ag6
aS'.'
ag18
ag24
ag13
ag4
ag16
ag2
aS'.'
ag6
ag9
ag8
ag24
ag2
ag23
aS'.'
ag14
ag24
ag19
ag23
ag20
ag14
aS'.'
ag8
ag24
ag9
ag18
ag21
ag18
aS'.'
ag8
ag21
ag14
ag24
ag21
ag19
aS'.'
ag6
ag21
ag11
ag24
ag9
ag18
aS'.'
ag18
ag24
ag13
ag2
ag13
ag6
aS'.'
ag8
ag5
ag19
ag24
ag13
ag15
aS'.'
ag18
ag24
ag11
ag21
ag23
ag14
aS'.'
ag2
ag23
ag10
ag24
ag4
ag21
aS'.'
ag10
ag21
ag19
ag24
ag16
ag19
aS'.'
ag2
ag22
ag14
ag24
ag5
ag18
aS'.'
ag11
ag24
ag5
ag18
ag20
ag14
aS'.'
ag18
ag22
ag2
ag24
ag16
ag4
aS'.'
ag19
ag24
ag22
ag15
ag23
ag2
aS'.'
ag19
ag22
ag2
ag24
ag13
ag14
aS'.'
ag8
ag24
ag9
ag8
ag5
ag10
aS'.'
ag15
ag24
ag23
ag4
ag13
ag2
aS'.'
ag15
ag23
ag19
ag24
ag10
ag21
aS'.'
ag8
ag24
ag20
ag10
ag21
ag19
aS'.'
ag19
ag24
ag23
ag2
ag22
ag15
aS'.'
ag8
ag9
ag11
ag24
ag9
ag2
aS'.'
ag10
ag9
ag8
ag24
ag2
ag23
aS'.'
ag15
ag24
ag23
ag8
ag22
ag18
aS'.'
ag14
ag24
ag10
ag21
ag21
ag6
aS'.'
ag15
ag23
ag11
ag24
ag18
ag23
aS'.'
ag14
ag9
ag14
ag24
ag20
ag8
aS'.'
ag2
ag24
ag18
ag22
ag13
ag14
aS'.'
ag4
ag20
ag8
ag24
ag9
ag8
aS'.'
ag18
ag24
ag23
ag6
ag13
ag11
aS'.'
ag10
ag24
ag8
ag20
ag20
ag6
aS'.'
ag18
ag23
ag14
ag24
ag21
ag14
aS'.'
ag14
ag20
ag10
ag24
ag21
ag19
aS'.'
ag11
ag20
ag2
ag24
ag16
ag11
aS'.'
ag19
ag24
ag4
ag20
ag23
ag8
aS'.'
ag10
ag5
ag2
ag24
ag22
ag19
aS'.'
ag15
ag23
ag19
ag24
ag14
ag21
aS'.'
ag10
ag24
ag21
ag10
ag20
ag10
aS'.'
ag18
ag24
ag22
ag2
ag16
ag6
aS'.'
ag10
ag9
ag14
ag24
ag21
ag4
aS'.'
ag19
ag24
ag23
ag19
ag22
ag11
aS'.'
ag14
ag5
ag14
ag24
ag9
ag14
aS'.'
ag8
ag21
ag15
ag24
ag14
ag20
aS'.'
ag8
ag24
ag5
ag19
ag9
ag4
aS'.'
ag15
ag23
ag18
ag24
ag13
ag19
aS'.'
ag18
ag24
ag16
ag11
ag16
ag8
aS'.'
ag18
ag24
ag10
ag20
ag16
ag10
aS'.'
ag15
ag24
ag23
ag11
ag16
ag19
aS'.'
ag15
ag24
ag15
ag23
ag16
ag2
aS'.'
ag10
ag9
ag14
ag24
ag20
ag4
aS'.'
ag18
ag24
ag8
ag21
ag13
ag19
aS'.'
ag18
ag24
ag23
ag18
ag22
ag6
aS'.'
ag18
ag22
ag8
ag24
ag19
ag22
aS'.'
ag14
ag24
ag20
ag4
ag5
ag10
aS'.'
ag6
ag20
ag10
ag24
ag6
ag21
aS'.'
ag18
ag24
ag22
ag18
ag23
ag8
aS'.'
ag14
ag20
ag19
ag24
ag22
ag4
aS'.'
ag8
ag9
ag2
ag24
ag18
ag23
aS'.'
ag14
ag24
ag21
ag8
ag9
ag19
aS'.'
ag6
ag5
ag2
ag24
ag16
ag10
aS'.'
ag10
ag24
ag21
ag11
ag5
ag19
aS'.'
ag18
ag23
ag8
ag24
ag2
ag22
aS'.'
ag18
ag23
ag11
ag24
ag10
ag21
aS'.'
ag10
ag9
ag10
ag24
ag6
ag21
aS'.'
ag14
ag20
ag11
ag24
ag5
ag14
aS'.'
ag18
ag24
ag13
ag19
ag23
ag4
aS'.'
ag15
ag24
ag23
ag10
ag23
ag15
aS'.'
ag10
ag9
ag2
ag24
ag13
ag19
aS'.'
ag18
ag24
ag14
ag20
ag23
ag8
aS'.'
ag8
ag24
ag10
ag20
ag5
ag4
aS'.'
ag15
ag24
ag14
ag21
ag22
ag18
aS'.'
ag2
ag24
ag11
ag20
ag13
ag6
aS'.'
ag11
ag9
ag2
ag24
ag10
ag21
aS'.'
ag11
ag24
ag9
ag19
ag9
ag18
aS'.'
ag14
ag21
ag11
ag24
ag4
ag21
aS'.'
ag18
ag24
ag22
ag11
ag16
ag15
aS'.'
ag10
ag24
ag15
ag23
ag21
ag2
aS'.'
ag11
ag5
ag14
ag24
ag9
ag6
aS'.'
ag19
ag13
ag19
ag24
ag18
ag23
aS'.'
ag2
ag24
ag16
ag14
ag22
ag8
aS'.'
ag14
ag24
ag9
ag14
ag21
ag4
aS'.'
ag6
ag5
ag10
ag24
ag20
ag6
aS'.'
ag19
ag13
ag18
ag24
ag22
ag19
aS'.'
ag10
ag21
ag11
ag24
ag10
ag21
aS'.'
ag18
ag24
ag23
ag6
ag22
ag2
aS'.'
ag10
ag24
ag5
ag18
ag9
ag15
aS'.'
ag2
ag24
ag19
ag22
ag23
ag4
aS'.'
ag2
ag24
ag18
ag22
ag13
ag19
aS'.'
ag14
ag24
ag15
ag23
ag21
ag2
aS'.'
ag8
ag24
ag10
ag20
ag5
ag11
aS'.'
ag18
ag24
ag13
ag19
ag23
ag4
aS'.'
ag11
ag9
ag11
ag24
ag20
ag10
aS'.'
ag8
ag24
ag5
ag8
ag5
ag6
aS'.'
ag18
ag16
ag11
ag24
ag8
ag21
aS'.'
ag8
ag24
ag10
ag21
ag20
ag4
aS'.'
ag18
ag23
ag8
ag24
ag9
ag11
aS'.'
ag8
ag24
ag5
ag11
ag21
ag4
aS'.'
ag18
ag24
ag22
ag6
ag13
ag8
aS'.'
ag10
ag24
ag11
ag20
ag20
ag6
aS'.'
ag8
ag24
ag5
ag8
ag20
ag11
aS'.'
ag10
ag24
ag9
ag11
ag9
ag4
aS'.'
ag6
ag5
ag2
ag24
ag22
ag18
aS'.'
ag6
ag21
ag8
ag24
ag5
ag14
aS'.'
ag15
ag23
ag15
ag24
ag11
ag20
aS'.'
ag14
ag21
ag10
ag24
ag6
ag21
aS'.'
ag10
ag24
ag9
ag19
ag20
ag10
aS'.'
ag14
ag24
ag18
ag23
ag20
ag18
aS'.'
ag15
ag24
ag15
ag22
ag23
ag11
aS'.'
ag19
ag13
ag19
ag24
ag13
ag15
aS'.'
ag8
ag9
ag10
ag24
ag8
ag20
aS'.'
ag19
ag22
ag10
ag24
ag21
ag15
aS'.'
ag18
ag24
ag22
ag18
ag13
ag19
aS'.'
ag14
ag24
ag5
ag8
ag5
ag6
aS'.'
ag2
ag24
ag22
ag10
ag22
ag14
aS'.'
ag4
ag21
ag2
ag24
ag18
ag22
aS'.'
ag6
ag20
ag14
ag24
ag9
ag2
aS'.'
ag4
ag21
ag8
ag24
ag21
ag14
aS'.'
ag19
ag24
ag19
ag23
ag13
ag4
aS'.'
ag4
ag21
ag10
ag24
ag19
ag22
aS'.'
ag8
ag24
ag9
ag2
ag9
ag11
aS'.'
ag8
ag24
ag21
ag18
ag20
ag11
aS'.'
ag4
ag20
ag15
ag24
ag15
ag23
aS'.'
ag10
ag24
ag15
ag22
ag9
ag18
aS'.'
ag4
ag21
ag18
ag24
ag13
ag19
aS'.'
ag19
ag22
ag11
ag24
ag4
ag20
aS'.'
ag2
ag24
ag16
ag4
ag16
ag11
aS'.'
ag4
ag5
ag11
ag24
ag20
ag2
aS'.'
ag14
ag20
ag10
ag24
ag14
ag20
aS'.'
ag2
ag16
ag11
ag24
ag5
ag15
aS'.'
ag14
ag24
ag21
ag19
ag21
ag15
aS'.'
ag4
ag9
ag11
ag24
ag20
ag15
aS'.'
ag8
ag24
ag5
ag6
ag5
ag11
aS'.'
ag15
ag24
ag15
ag23
ag22
ag11
aS'.'
ag10
ag5
ag10
ag24
ag4
ag21
aS'.'
ag10
ag5
ag14
ag24
ag5
ag2
aS'.'
ag15
ag24
ag13
ag10
ag23
ag11
aS'.'
ag18
ag22
ag19
ag24
ag15
ag23
aS'.'
ag8
ag24
ag18
ag23
ag5
ag15
aS'.'
ag14
ag24
ag20
ag19
ag5
ag19
aS'.'
ag11
ag24
ag19
ag23
ag9
ag14
aS'.'
ag19
ag24
ag22
ag11
ag22
ag2
aS'.'
ag18
ag13
ag14
ag24
ag4
ag21
aS'.'
ag14
ag24
ag21
ag14
ag20
ag4
aS'.'
ag15
ag16
ag14
ag24
ag9
ag19
aS'.'
ag2
ag24
ag13
ag4
ag13
ag10
aS'.'
ag2
ag13
ag15
ag24
ag10
ag21
aS'.'
ag2
ag24
ag13
ag2
ag16
ag11
aS'.'
ag6
ag5
ag11
ag24
ag21
ag18
aS'.'
ag19
ag24
ag16
ag19
ag16
ag4
aS'.'
ag10
ag24
ag5
ag2
ag5
ag18
aS'.'
ag18
ag23
ag2
ag24
ag18
ag23
aS'.'
ag18
ag13
ag14
ag24
ag21
ag11
aS'.'
ag8
ag24
ag20
ag4
ag9
ag14
aS'.'
ag11
ag24
ag9
ag2
ag5
ag4
aS'.'
ag8
ag9
ag18
ag24
ag16
ag18
aS'.'
ag14
ag24
ag5
ag10
ag21
ag18
aS'.'
ag2
ag24
ag13
ag18
ag23
ag10
aS'.'
ag18
ag24
ag16
ag11
ag22
ag15
aS'.'
ag14
ag21
ag14
ag24
ag21
ag8
aS'.'
ag14
ag21
ag11
ag24
ag5
ag8
aS'.'
ag6
ag9
ag11
ag24
ag20
ag2
aS'.'
ag19
ag13
ag11
ag24
ag15
ag22
aS'.'
ag8
ag20
ag10
ag24
ag8
ag20
aS'.'
ag8
ag24
ag6
ag21
ag20
ag6
aS'.'
ag18
ag13
ag18
ag24
ag16
ag14
aS'.'
ag8
ag24
ag9
ag15
ag21
ag10
aS'.'
ag15
ag13
ag10
ag24
ag2
ag23
aS'.'
ag19
ag22
ag18
ag24
ag13
ag2
aS'.'
ag11
ag9
ag11
ag24
ag21
ag11
aS'.'
ag10
ag21
ag8
ag24
ag18
ag23
aS'.'
ag8
ag24
ag5
ag6
ag9
ag4
aS'.'
ag11
ag9
ag14
ag24
ag14
ag20
aS'.'
ag11
ag24
ag9
ag14
ag20
ag10
aS'.'
ag8
ag24
ag9
ag8
ag20
ag14
aS'.'
ag2
ag23
ag10
ag24
ag20
ag2
aS'.'
ag19
ag24
ag6
ag20
ag23
ag19
aS'.'
ag18
ag13
ag10
ag24
ag19
ag23
aS'.'
ag15
ag13
ag11
ag24
ag10
ag21
aS'.'
ag4
ag9
ag11
ag24
ag18
ag22
aS'.'
ag2
ag24
ag15
ag22
ag22
ag4
aS'.'
ag6
ag5
ag19
ag24
ag8
ag20
aS'.'
ag18
ag23
ag15
ag24
ag22
ag14
aS'.'
ag18
ag16
ag8
ag24
ag6
ag20
aS'.'
ag14
ag9
ag8
ag24
ag9
ag2
aS'.'
ag11
ag24
ag21
ag15
ag9
ag15
aS'.'
ag15
ag23
ag19
ag24
ag22
ag4
aS'.'
ag2
ag24
ag23
ag4
ag22
ag6
aS'.'
ag15
ag24
ag10
ag20
ag13
ag8
aS'.'
ag4
ag5
ag10
ag24
ag9
ag18
aS'.'
ag15
ag23
ag10
ag24
ag5
ag10
aS'.'
ag19
ag24
ag16
ag6
ag16
ag19
aS'.'
ag2
ag13
ag18
ag24
ag16
ag15
aS'.'
ag18
ag24
ag16
ag6
ag23
ag15
aS'.'
ag8
ag20
ag2
ag24
ag11
ag21
aS'.'
ag8
ag24
ag9
ag18
ag5
ag18
aS'.'
ag19
ag23
ag14
ag24
ag21
ag6
aS'.'
ag8
ag24
ag15
ag23
ag9
ag11
aS'.'
ag2
ag24
ag22
ag10
ag23
ag4
aS'.'
ag4
ag21
ag15
ag24
ag22
ag10
aS'.'
ag11
ag24
ag9
ag2
ag20
ag15
aS'.'
ag19
ag13
ag14
ag24
ag21
ag15
aS'.'
ag14
ag21
ag14
ag24
ag19
ag23
aS'.'
ag8
ag9
ag10
ag24
ag5
ag6
aS'.'
ag15
ag16
ag19
ag24
ag23
ag8
aS'.'
ag15
ag13
ag18
ag24
ag23
ag19
aS'.'
ag14
ag24
ag5
ag18
ag20
ag14
aS'.'
ag6
ag9
ag8
ag24
ag5
ag10
aS'.'
ag8
ag24
ag5
ag15
ag9
ag11
aS'.'
ag2
ag22
ag11
ag24
ag20
ag14
aS'.'
ag8
ag24
ag5
ag10
ag20
ag19
aS'.'
ag6
ag20
ag8
ag24
ag21
ag11
aS'.'
ag15
ag24
ag22
ag4
ag16
ag11
aS'.'
ag19
ag22
ag10
ag24
ag6
ag20
aS'.'
ag8
ag24
ag20
ag4
ag21
ag19
aS'.'
ag15
ag24
ag11
ag21
ag16
ag6
aS'.'
ag6
ag21
ag8
ag24
ag20
ag4
aS'.'
ag10
ag24
ag5
ag10
ag20
ag15
aS'.'
ag15
ag24
ag23
ag15
ag16
ag4
aS'.'
ag15
ag23
ag11
ag24
ag6
ag21
aS'.'
ag8
ag24
ag20
ag8
ag5
ag2
aS'.'
ag18
ag23
ag11
ag24
ag20
ag6
aS'.'
ag14
ag5
ag11
ag24
ag8
ag21
aS'.'
ag2
ag13
ag18
ag24
ag23
ag14
aS'.'
ag14
ag20
ag14
ag24
ag6
ag20
aS'.'
ag11
ag24
ag9
ag4
ag20
ag2
aS'.'
ag8
ag5
ag10
ag24
ag11
ag21
aS'.'
ag8
ag5
ag11
ag24
ag20
ag4
aS'.'
ag18
ag22
ag10
ag24
ag21
ag8
aS'.'
ag10
ag24
ag2
ag23
ag5
ag10
aS'.'
ag10
ag24
ag9
ag2
ag5
ag4
aS'.'
ag14
ag24
ag5
ag10
ag9
ag10
aS'.'
ag11
ag24
ag5
ag19
ag5
ag19
aS'.'
ag10
ag9
ag14
ag24
ag21
ag18
aS'.'
ag15
ag24
ag19
ag23
ag13
ag4
aS'.'
ag15
ag24
ag8
ag20
ag23
ag15
aS'.'
ag11
ag21
ag18
ag24
ag23
ag11
aS'.'
ag19
ag13
ag8
ag24
ag14
ag21
aS'.'
ag15
ag13
ag19
ag24
ag16
ag18
aS'.'
ag8
ag21
ag8
ag24
ag4
ag20
aS'.'
ag19
ag24
ag11
ag21
ag16
ag2
aS'.'
ag11
ag5
ag15
ag24
ag23
ag2
aS'.'
ag8
ag9
ag8
ag24
ag18
ag23
aS'.'
ag18
ag13
ag14
ag24
ag4
ag20
aS'.'
ag11
ag5
ag2
ag24
ag16
ag14
aS'.'
ag11
ag9
ag18
ag24
ag22
ag10
aS'.'
ag2
ag24
ag23
ag4
ag22
ag6
aS'.'
ag10
ag24
ag9
ag14
ag21
ag19
aS'.'
ag10
ag24
ag18
ag23
ag5
ag8
aS'.'
ag10
ag24
ag21
ag18
ag20
ag11
aS'.'
ag18
ag23
ag11
ag24
ag10
ag20
aS'.'
ag4
ag9
ag11
ag24
ag21
ag15
aS'.'
ag8
ag24
ag21
ag2
ag21
ag15
aS'.'
ag10
ag24
ag20
ag4
ag20
ag18
aS'.'
ag15
ag22
ag10
ag24
ag20
ag8
aS'.'
ag10
ag24
ag9
ag6
ag5
ag4
aS'.'
ag2
ag24
ag22
ag2
ag23
ag6
aS'.'
ag10
ag24
ag9
ag14
ag9
ag6
aS'.'
ag15
ag13
ag11
ag24
ag5
ag19
aS'.'
ag14
ag5
ag8
ag24
ag2
ag23
aS'.'
ag18
ag13
ag14
ag24
ag20
ag14
aS'.'
ag14
ag21
ag11
ag24
ag5
ag14
aS'.'
ag10
ag24
ag10
ag20
ag9
ag6
aS'.'
ag8
ag21
ag2
ag24
ag23
ag2
aS'.'
ag19
ag13
ag2
ag24
ag23
ag15
aS'.'
ag15
ag24
ag23
ag15
ag16
ag4
aS'.'
ag11
ag9
ag14
ag24
ag19
ag23
aS'.'
ag2
ag24
ag23
ag15
ag22
ag14
aS'.'
ag14
ag9
ag10
ag24
ag5
ag19
aS'.'
ag18
ag24
ag22
ag18
ag22
ag10
aS'.'
ag15
ag24
ag19
ag22
ag23
ag6
aS'.'
ag19
ag24
ag15
ag23
ag16
ag18
aS'.'
ag2
ag13
ag19
ag24
ag13
ag8
aS'.'
ag10
ag24
ag9
ag18
ag5
ag14
aS'.'
ag11
ag24
ag5
ag15
ag9
ag18
aS'.'
ag18
ag24
ag22
ag18
ag23
ag10
aS'.'
ag18
ag24
ag2
ag22
ag22
ag11
aS'.'
ag4
ag20
ag19
ag24
ag15
ag23
aS'.'
ag19
ag24
ag16
ag2
ag22
ag14
aS'.'
ag6
ag9
ag18
ag24
ag23
ag11
aS'.'
ag19
ag24
ag18
ag22
ag22
ag19
aS'.'
ag14
ag24
ag20
ag15
ag21
ag15
aS'.'
ag2
ag22
ag14
ag24
ag21
ag8
aS'.'
ag8
ag21
ag18
ag24
ag23
ag6
aS'.'
ag2
ag24
ag23
ag8
ag13
ag2
aS'.'
ag15
ag23
ag19
ag24
ag22
ag14
aS'.'
ag14
ag20
ag10
ag24
ag5
ag8
aS'.'
ag11
ag9
ag14
ag24
ag15
ag22
aS'.'
ag2
ag24
ag13
ag19
ag16
ag11
aS'.'
ag11
ag24
ag9
ag10
ag20
ag14
aS'.'
ag18
ag24
ag22
ag11
ag23
ag4
aS'.'
ag14
ag24
ag20
ag6
ag21
ag15
aS'.'
ag10
ag21
ag14
ag24
ag5
ag19
aS'.'
ag14
ag20
ag11
ag24
ag5
ag4
aS'.'
ag6
ag20
ag19
ag24
ag11
ag21
aS'.'
ag11
ag24
ag20
ag19
ag5
ag8
aS'.'
ag19
ag24
ag4
ag21
ag16
ag4
aS'.'
ag19
ag24
ag22
ag15
ag23
ag4
aS'.'
ag4
ag20
ag14
ag24
ag9
ag4
aS'.'
ag11
ag24
ag5
ag15
ag9
ag19
aS'.'
ag14
ag24
ag9
ag18
ag21
ag6
aS'.'
ag18
ag22
ag19
ag24
ag16
ag4
aS'.'
ag18
ag22
ag11
ag24
ag14
ag21
aS'.'
ag19
ag24
ag23
ag4
ag23
ag14
aS'.'
ag14
ag24
ag5
ag10
ag21
ag15
aS'.'
ag10
ag24
ag9
ag10
ag21
ag6
aS'.'
ag15
ag24
ag16
ag14
ag23
ag19
aS'.'
ag19
ag13
ag10
ag24
ag5
ag14
aS'.'
ag2
ag24
ag13
ag19
ag23
ag6
aS'.'
ag15
ag23
ag19
ag24
ag2
ag23
aS'.'
ag8
ag21
ag19
ag24
ag16
ag15
aS'.'
ag18
ag24
ag4
ag20
ag16
ag18
aS'.'
ag4
ag21
ag11
ag24
ag20
ag19
aS'.'
ag18
ag24
ag19
ag22
ag16
ag11
aS'.'
ag19
ag24
ag23
ag6
ag22
ag14
aS'.'
ag11
ag24
ag21
ag2
ag9
ag14
aS'.'
ag11
ag21
ag15
ag24
ag19
ag22
aS'.'
ag19
ag24
ag13
ag8
ag23
ag8
aS'.'
ag2
ag23
ag14
ag24
ag8
ag21
aS'.'
ag11
ag5
ag19
ag24
ag13
ag2
aS'.'
ag18
ag24
ag23
ag4
ag13
ag15
aS'.'
ag10
ag24
ag21
ag10
ag21
ag15
aS'.'
ag18
ag16
ag2
ag24
ag13
ag18
aS'.'
ag11
ag20
ag19
ag24
ag6
ag20
aS'.'
ag18
ag24
ag16
ag19
ag13
ag19
aS'.'
ag11
ag24
ag4
ag21
ag9
ag4
aS'.'
ag18
ag23
ag10
ag24
ag5
ag18
aS'.'
ag10
ag24
ag21
ag4
ag20
ag8
aS'.'
ag8
ag24
ag11
ag20
ag21
ag8
aS'.'
ag15
ag16
ag8
ag24
ag21
ag8
aS'.'
ag4
ag20
ag19
ag24
ag22
ag18
aS'.'
ag19
ag13
ag14
ag24
ag5
ag6
aS'.'
ag18
ag16
ag11
ag24
ag2
ag23
aS'.'
ag2
ag24
ag22
ag11
ag16
ag11
aS'.'
ag14
ag24
ag2
ag23
ag21
ag6
aS'.'
ag10
ag5
ag2
ag24
ag18
ag23
aS'.'
ag15
ag13
ag18
ag24
ag16
ag18
aS'.'
ag11
ag24
ag21
ag19
ag21
ag6
aS'.'
ag15
ag24
ag16
ag18
ag16
ag18
aS'.'
ag4
ag9
ag19
ag24
ag4
ag21
aS'.'
ag2
ag24
ag6
ag21
ag23
ag15
aS'.'
ag6
ag21
ag11
ag24
ag21
ag18
aS'.'
ag10
ag24
ag2
ag23
ag20
ag8
aS'.'
ag10
ag24
ag21
ag19
ag5
ag4
aS'.'
ag18
ag22
ag10
ag24
ag9
ag11
aS'.'
ag18
ag24
ag13
ag19
ag13
ag19
aS'.'
ag4
ag21
ag8
ag24
ag20
ag11
aS'.'
ag18
ag24
ag13
ag19
ag23
ag4
aS'.'
ag19
ag24
ag22
ag2
ag22
ag19
aS'.'
ag11
ag5
ag14
ag24
ag8
ag20
aS'.'
ag11
ag24
ag21
ag11
ag21
ag6
aS'.'
ag6
ag21
ag14
ag24
ag21
ag8
aS'.'
ag2
ag24
ag22
ag2
ag16
ag14
aS'.'
ag2
ag24
ag8
ag20
ag13
ag15
aS'.'
ag19
ag24
ag18
ag23
ag16
ag14
aS'.'
ag11
ag24
ag9
ag18
ag21
ag10
aS'.'
ag10
ag24
ag9
ag15
ag9
ag11
aS'.'
ag11
ag9
ag14
ag24
ag18
ag23
aS'.'
ag10
ag9
ag2
ag24
ag16
ag19
aS'.'
ag6
ag20
ag10
ag24
ag21
ag15
aS'.'
ag11
ag24
ag21
ag18
ag20
ag11
aS'.'
ag15
ag24
ag4
ag20
ag13
ag10
aS'.'
ag18
ag22
ag10
ag24
ag9
ag19
aS'.'
ag8
ag20
ag10
ag24
ag9
ag19
aS'.'
ag2
ag24
ag23
ag11
ag16
ag14
aS'.'
ag14
ag9
ag11
ag24
ag10
ag21
aS'.'
ag19
ag13
ag19
ag24
ag23
ag19
aS'.'
ag15
ag24
ag8
ag21
ag16
ag15
aS'.'
ag11
ag24
ag21
ag19
ag20
ag10
aS'.'
ag15
ag24
ag13
ag4
ag13
ag11
aS'.'
ag18
ag24
ag13
ag11
ag23
ag14
aS'.'
ag14
ag5
ag8
ag24
ag6
ag21
aS'.'
ag15
ag13
ag14
ag24
ag15
ag23
aS'.'
ag14
ag24
ag21
ag2
ag5
ag8
aS'.'
ag18
ag24
ag16
ag2
ag13
ag6
aS'.'
ag11
ag9
ag2
ag24
ag16
ag14
aS'.'
ag18
ag13
ag19
ag24
ag13
ag8
aS'.'
ag8
ag20
ag15
ag24
ag16
ag10
aS'.'
ag10
ag5
ag8
ag24
ag6
ag20
aS'.'
ag18
ag24
ag13
ag4
ag23
ag11
aS'.'
ag15
ag24
ag13
ag18
ag16
ag15
aS'.'
ag14
ag20
ag2
ag24
ag22
ag6
aS'.'
ag14
ag24
ag5
ag18
ag20
ag14
aS'.'
ag19
ag13
ag19
ag24
ag13
ag11
aS'.'
ag10
ag24
ag5
ag2
ag21
ag19
aS'.'
ag6
ag21
ag11
ag24
ag9
ag4
aS'.'
ag19
ag13
ag8
ag24
ag21
ag2
aS'.'
ag8
ag24
ag5
ag10
ag5
ag2
aS'.'
ag14
ag5
ag14
ag24
ag5
ag4
aS'.'
ag14
ag24
ag21
ag18
ag20
ag6
aS'.'
ag10
ag21
ag11
ag24
ag20
ag4
aS'.'
ag15
ag24
ag18
ag22
ag23
ag14
aS'.'
ag15
ag24
ag22
ag15
ag22
ag6
aS'.'
ag2
ag24
ag16
ag8
ag13
ag6
aS'.'
ag19
ag24
ag13
ag8
ag23
ag18
aS'.'
ag14
ag24
ag21
ag2
ag21
ag8
aS'.'
ag18
ag24
ag23
ag4
ag23
ag10
aS'.'
ag14
ag9
ag19
ag24
ag16
ag19
aS'.'
ag10
ag5
ag11
ag24
ag21
ag15
aS'.'
ag18
ag24
ag11
ag20
ag22
ag11
aS'.'
ag8
ag24
ag5
ag8
ag5
ag15
aS'.'
ag4
ag21
ag2
ag24
ag23
ag19
aS'.'
ag15
ag22
ag18
ag24
ag22
ag15
aS'.'
ag10
ag24
ag21
ag18
ag9
ag4
aS'.'
ag8
ag24
ag9
ag14
ag9
ag6
aS'.'
ag2
ag24
ag19
ag22
ag23
ag6
aS'.'
ag19
ag22
ag10
ag24
ag20
ag14
aS'.'
ag6
ag5
ag10
ag24
ag20
ag6
aS'.'
ag15
ag24
ag18
ag22
ag23
ag8
aS'.'
ag10
ag24
ag14
ag21
ag21
ag2
aS'.'
ag6
ag20
ag2
ag24
ag13
ag8
aS'.'
ag19
ag23
ag15
ag24
ag19
ag22
aS'.'
ag11
ag9
ag8
ag24
ag15
ag23
aS'.'
ag15
ag22
ag10
ag24
ag18
ag22
aS'.'
ag18
ag24
ag14
ag20
ag23
ag18
aS'.'
ag4
ag21
ag15
ag24
ag16
ag4
aS'.'
ag6
ag20
ag18
ag24
ag14
ag21
aS'.'
ag11
ag21
ag14
ag24
ag20
ag2
aS'.'
ag14
ag5
ag2
ag24
ag23
ag8
aS'.'
ag8
ag24
ag9
ag18
ag9
ag10
aS'.'
ag2
ag16
ag18
ag24
ag18
ag22
aS'.'
ag19
ag24
ag13
ag2
ag23
ag19
aS'.'
ag18
ag22
ag18
ag24
ag13
ag8
aS'.'
ag4
ag5
ag2
ag24
ag13
ag14
aS'.'
ag2
ag16
ag14
ag24
ag5
ag10
aS'.'
ag2
ag24
ag16
ag4
ag23
ag14
aS'.'
ag15
ag22
ag14
ag24
ag9
ag2
aS'.'
ag8
ag24
ag5
ag6
ag9
ag10
aS'.'
ag19
ag16
ag11
ag24
ag20
ag10
aS'.'
ag2
ag24
ag13
ag10
ag22
ag11
aS'.'
ag15
ag24
ag13
ag14
ag22
ag2
aS'.'
ag2
ag24
ag16
ag2
ag16
ag14
aS'.'
ag11
ag9
ag10
ag24
ag20
ag19
aS'.'
ag19
ag24
ag23
ag6
ag16
ag8
aS'.'
ag18
ag22
ag2
ag24
ag13
ag15
aS'.'
ag19
ag24
ag13
ag11
ag22
ag10
aS'.'
ag14
ag9
ag8
ag24
ag8
ag20
aS'.'
ag18
ag22
ag15
ag24
ag22
ag2
aS'.'
ag8
ag24
ag20
ag4
ag20
ag11
aS'.'
ag19
ag24
ag4
ag20
ag22
ag15
aS'.'
ag19
ag24
ag16
ag2
ag22
ag2
aS'.'
ag19
ag24
ag13
ag18
ag23
ag18
aS'.'
ag19
ag22
ag10
ag24
ag19
ag23
aS'.'
ag8
ag9
ag18
ag24
ag23
ag19
aS'.'
ag18
ag16
ag14
ag24
ag6
ag20
aS'.'
ag4
ag21
ag8
ag24
ag21
ag6
aS'.'
ag4
ag5
ag10
ag24
ag4
ag20
aS'.'
ag19
ag13
ag11
ag24
ag9
ag4
aS'.'
ag14
ag24
ag15
ag22
ag5
ag8
aS'.'
ag8
ag24
ag8
ag21
ag5
ag14
aS'.'
ag10
ag24
ag5
ag14
ag5
ag14
aS'.'
ag18
ag16
ag18
ag24
ag16
ag18
aS'.'
ag2
ag24
ag16
ag8
ag13
ag18
aS'.'
ag18
ag23
ag18
ag24
ag23
ag6
aS'.'
ag18
ag22
ag14
ag24
ag6
ag21
aS'.'
ag10
ag24
ag11
ag20
ag9
ag18
aS'.'
ag10
ag5
ag10
ag24
ag5
ag19
aS'.'
ag15
ag24
ag23
ag14
ag13
ag19
aS'.'
ag19
ag16
ag8
ag24
ag2
ag23
aS'.'
ag19
ag22
ag11
ag24
ag8
ag21
aS'.'
ag18
ag24
ag19
ag22
ag16
ag6
aS'.'
ag2
ag24
ag13
ag18
ag13
ag14
aS'.'
ag15
ag24
ag13
ag10
ag13
ag2
aS'.'
ag11
ag24
ag20
ag18
ag21
ag2
aS'.'
ag8
ag24
ag15
ag22
ag5
ag6
aS'.'
ag18
ag22
ag19
ag24
ag16
ag14
aS'.'
ag8
ag24
ag14
ag20
ag20
ag14
aS'.'
ag11
ag24
ag20
ag10
ag21
ag18
aS'.'
ag11
ag24
ag5
ag2
ag21
ag19
aS'.'
ag10
ag24
ag11
ag21
ag5
ag19
aS'.'
ag19
ag24
ag13
ag19
ag16
ag6
aS'.'
ag10
ag5
ag15
ag24
ag2
ag22
aS'.'
ag14
ag21
ag10
ag24
ag20
ag18
aS'.'
ag11
ag20
ag19
ag24
ag23
ag2
aS'.'
ag4
ag9
ag15
ag24
ag13
ag6
aS'.'
ag10
ag24
ag5
ag10
ag21
ag2
aS'.'
ag15
ag16
ag10
ag24
ag5
ag10
aS'.'
ag8
ag20
ag14
ag24
ag4
ag21
aS'.'
ag15
ag13
ag19
ag24
ag13
ag10
aS'.'
ag6
ag21
ag8
ag24
ag21
ag14
aS'.'
ag18
ag23
ag10
ag24
ag11
ag21
aS'.'
ag18
ag24
ag16
ag15
ag16
ag10
aS'.'
ag6
ag21
ag15
ag24
ag8
ag21
aS'.'
ag2
ag24
ag22
ag8
ag23
ag18
aS'.'
ag19
ag13
ag8
ag24
ag4
ag20
aS'.'
ag2
ag24
ag2
ag22
ag23
ag19
aS'.'
ag6
ag5
ag11
ag24
ag5
ag19
aS'.'
ag19
ag13
ag14
ag24
ag9
ag6
aS'.'
ag2
ag24
ag19
ag23
ag13
ag11
aS'.'
ag11
ag9
ag10
ag24
ag21
ag6
aS'.'
ag18
ag24
ag16
ag15
ag22
ag11
aS'.'
ag18
ag24
ag2
ag23
ag23
ag4
aS'.'
ag19
ag24
ag13
ag15
ag16
ag10
aS'.'
ag19
ag16
ag8
ag24
ag9
ag14
aS'.'
ag2
ag24
ag11
ag20
ag23
ag14
aS'.'
ag6
ag21
ag14
ag24
ag20
ag2
aS'.'
ag19
ag22
ag15
ag24
ag13
ag6
aS'.'
ag4
ag20
ag11
ag24
ag5
ag14
aS'.'
ag10
ag9
ag15
ag24
ag23
ag18
aS'.'
ag19
ag24
ag13
ag11
ag13
ag15
aS'.'
ag2
ag24
ag11
ag20
ag23
ag11
aS'.'
ag18
ag24
ag16
ag6
ag23
ag19
aS'.'
ag18
ag13
ag14
ag24
ag9
ag8
aS'.'
ag2
ag22
ag18
ag24
ag23
ag2
aS'.'
ag10
ag24
ag9
ag6
ag5
ag4
aS'.'
ag2
ag24
ag23
ag19
ag23
ag10
aS'.'
ag2
ag24
ag11
ag20
ag13
ag15
aS'.'
ag15
ag23
ag10
ag24
ag5
ag6
aS'.'
ag2
ag16
ag14
ag24
ag9
ag19
aS'.'
ag10
ag5
ag15
ag24
ag13
ag6
aS'.'
ag11
ag20
ag18
ag24
ag23
ag14
aS'.'
ag14
ag9
ag19
ag24
ag14
ag20
aS'.'
ag18
ag24
ag13
ag11
ag22
ag8
aS'.'
ag2
ag24
ag16
ag10
ag23
ag6
aS'.'
ag14
ag24
ag10
ag21
ag5
ag10
aS'.'
ag15
ag23
ag19
ag24
ag13
ag14
aS'.'
ag19
ag24
ag23
ag4
ag13
ag10
aS'.'
ag6
ag9
ag18
ag24
ag4
ag21
aS'.'
ag18
ag13
ag8
ag24
ag20
ag19
aS'.'
ag2
ag13
ag11
ag24
ag5
ag2
aS'.'
ag10
ag24
ag10
ag21
ag5
ag2
aS'.'
ag11
ag9
ag19
ag24
ag18
ag23
aS'.'
ag19
ag24
ag2
ag23
ag13
ag11
aS'.'
ag19
ag24
ag8
ag21
ag23
ag10
aS'.'
ag4
ag21
ag15
ag24
ag23
ag4
aS'.'
ag6
ag21
ag2
ag24
ag16
ag8
aS'.'
ag14
ag5
ag8
ag24
ag21
ag19
aS'.'
ag2
ag22
ag19
ag24
ag16
ag18
aS'.'
ag8
ag24
ag2
ag23
ag20
ag10
aS'.'
ag15
ag24
ag23
ag4
ag23
ag18
aS'.'
ag11
ag24
ag21
ag19
ag20
ag14
aS'.'
ag11
ag24
ag5
ag18
ag9
ag10
aS'.'
ag10
ag9
ag19
ag24
ag18
ag23
aS'.'
ag14
ag24
ag6
ag20
ag5
ag15
aS'.'
ag15
ag24
ag23
ag14
ag22
ag15
aS'.'
ag2
ag24
ag22
ag6
ag16
ag2
aS'.'
ag19
ag24
ag13
ag19
ag13
ag2
aS'.'
ag15
ag24
ag16
ag2
ag13
ag8
aS'.'
ag19
ag16
ag14
ag24
ag20
ag6
aS'.'
ag14
ag21
ag18
ag24
ag23
ag15
aS'.'
ag18
ag24
ag10
ag20
ag16
ag4
aS'.'
ag18
ag24
ag6
ag21
ag23
ag6
aS'.'
ag19
ag24
ag16
ag2
ag23
ag14
aS'.'
ag14
ag5
ag19
ag24
ag13
ag2
aS'.'
ag6
ag20
ag10
ag24
ag9
ag2
aS'.'
ag10
ag24
ag14
ag20
ag21
ag8
aS'.'
ag15
ag24
ag23
ag10
ag13
ag4
aS'.'
ag4
ag20
ag18
ag24
ag16
ag2
aS'.'
ag4
ag5
ag15
ag24
ag16
ag19
aS'.'
ag11
ag24
ag9
ag8
ag9
ag19
aS'.'
ag2
ag24
ag11
ag20
ag22
ag14
aS'.'
ag18
ag24
ag4
ag21
ag13
ag11
aS'.'
ag2
ag23
ag8
ag24
ag5
ag10
aS'.'
ag11
ag24
ag21
ag4
ag9
ag6
aS'.'
ag8
ag24
ag14
ag21
ag9
ag11
aS'.'
ag19
ag16
ag10
ag24
ag5
ag14
aS'.'
ag15
ag24
ag8
ag21
ag22
ag4
aS'.'
ag10
ag24
ag11
ag21
ag20
ag6
aS'.'
ag15
ag24
ag8
ag20
ag22
ag6
aS'.'
ag10
ag5
ag14
ag24
ag18
ag23
aS'.'
ag10
ag24
ag5
ag19
ag20
ag19
aS'.'
ag10
ag24
ag19
ag22
ag9
ag15
aS'.'
ag15
ag24
ag14
ag20
ag22
ag6
aS'.'
ag19
ag16
ag2
ag24
ag13
ag8
aS'.'
ag2
ag13
ag18
ag24
ag2
ag22
aS'.'
ag8
ag24
ag9
ag8
ag5
ag4
aS'.'
ag19
ag13
ag15
ag24
ag22
ag4
aS'.'
ag14
ag9
ag2
ag24
ag8
ag20
aS'.'
ag10
ag24
ag18
ag23
ag21
ag19
aS'.'
ag2
ag24
ag16
ag14
ag16
ag19
aS'.'
ag10
ag24
ag9
ag15
ag20
ag19
aS'.'
ag2
ag22
ag2
ag24
ag14
ag21
aS'.'
ag8
ag20
ag18
ag24
ag23
ag18
aS'.'
ag6
ag20
ag8
ag24
ag2
ag23
aS'.'
ag8
ag24
ag9
ag19
ag9
ag6
aS'.'
ag15
ag24
ag19
ag22
ag16
ag11
aS'.'
ag14
ag24
ag2
ag23
ag9
ag4
aS'.'
ag14
ag5
ag8
ag24
ag10
ag21
aS'.'
ag10
ag9
ag15
ag24
ag8
ag20
aS'.'
ag4
ag5
ag8
ag24
ag20
ag11
aS'.'
ag10
ag24
ag20
ag10
ag20
ag8
aS'.'
ag19
ag22
ag18
ag24
ag16
ag14
aS'.'
ag14
ag20
ag19
ag24
ag23
ag15
aS'.'
ag6
ag21
ag11
ag24
ag4
ag20
aS'.'
ag14
ag24
ag4
ag21
ag21
ag6
aS'.'
ag8
ag9
ag14
ag24
ag10
ag21
aS'.'
ag15
ag13
ag18
ag24
ag16
ag19
aS'.'
ag18
ag13
ag15
ag24
ag10
ag20
aS'.'
ag4
ag20
ag18
ag24
ag16
ag8
aS'.'
ag11
ag24
ag14
ag20
ag5
ag8
aS'.'
ag6
ag21
ag11
ag24
ag5
ag18
aS'.'
ag6
ag9
ag11
ag24
ag5
ag10
aS'.'
ag8
ag24
ag20
ag15
ag9
ag2
aS'.'
ag8
ag24
ag10
ag21
ag5
ag4
aS'.'
ag14
ag24
ag20
ag8
ag20
ag15
aS'.'
ag8
ag20
ag19
ag24
ag8
ag20
aS'.'
ag10
ag9
ag18
ag24
ag14
ag21
aS'.'
ag19
ag13
ag2
ag24
ag22
ag8
aS'.'
ag11
ag5
ag10
ag24
ag2
ag23
aS'.'
ag15
ag24
ag10
ag21
ag13
ag8
aS'.'
ag14
ag5
ag10
ag24
ag5
ag8
aS'.'
ag11
ag21
ag2
ag24
ag22
ag6
aS'.'
ag11
ag24
ag9
ag8
ag5
ag6
aS'.'
ag2
ag22
ag15
ag24
ag23
ag19
aS'.'
ag14
ag24
ag20
ag19
ag21
ag10
aS'.'
ag2
ag24
ag22
ag14
ag23
ag14
aS'.'
ag8
ag21
ag2
ag24
ag16
ag19
aS'.'
ag14
ag24
ag18
ag23
ag9
ag11
aS'.'
ag10
ag24
ag9
ag4
ag5
ag6
aS'.'
ag18
ag24
ag22
ag6
ag16
ag4
aS'.'
ag15
ag23
ag11
ag24
ag6
ag21
aS'.'
ag2
ag22
ag19
ag24
ag2
ag23
aS'.'
ag11
ag24
ag4
ag21
ag20
ag2
aS'.'
ag8
ag24
ag5
ag19
ag20
ag14
aS'.'
ag10
ag24
ag5
ag4
ag9
ag19
aS'.'
ag10
ag9
ag15
ag24
ag23
ag4
aS'.'
ag18
ag13
ag18
ag24
ag23
ag10
aS'.'
ag8
ag24
ag9
ag10
ag9
ag15
aS'.'
ag8
ag24
ag21
ag8
ag20
ag8
aS'.'
ag2
ag13
ag15
ag24
ag8
ag21
aS'.'
ag10
ag21
ag2
ag24
ag16
ag2
aS'.'
ag4
ag21
ag11
ag24
ag18
ag23
aS'.'
ag14
ag20
ag10
ag24
ag21
ag19
aS'.'
ag2
ag16
ag14
ag24
ag2
ag23
aS'.'
ag11
ag24
ag5
ag4
ag5
ag11
aS'.'
ag4
ag9
ag11
ag24
ag18
ag23
aS'.'
ag10
ag24
ag20
ag15
ag21
ag15
aS'.'
ag10
ag24
ag5
ag8
ag20
ag18
aS'.'
ag2
ag24
ag15
ag23
ag16
ag19
aS'.'
ag19
ag24
ag23
ag14
ag22
ag6
aS'.'
ag11
ag20
ag10
ag24
ag9
ag11
aS'.'
ag18
ag24
ag22
ag6
ag13
ag6
aS'.'
ag15
ag22
ag15
ag24
ag8
ag20
aS'.'
ag10
ag24
ag8
ag20
ag21
ag6
aS'.'
ag6
ag20
ag15
ag24
ag13
ag19
aS'.'
ag19
ag24
ag16
ag14
ag23
ag15
aS'.'
ag18
ag24
ag22
ag2
ag13
ag18
aS'.'
ag14
ag9
ag10
ag24
ag9
ag14
aS'.'
ag14
ag21
ag18
ag24
ag10
ag21
aS'.'
ag18
ag22
ag11
ag24
ag21
ag18
aS'.'
ag2
ag24
ag23
ag10
ag23
ag4
aS'.'
ag4
ag9
ag14
ag24
ag5
ag10
aS'.'
ag19
ag24
ag11
ag20
ag16
ag15
aS'.'
ag10
ag9
ag14
ag24
ag2
ag23
aS'.'
ag10
ag24
ag21
ag10
ag9
ag2
aS'.'
ag18
ag22
ag11
ag24
ag2
ag23
aS'.'
ag11
ag9
ag19
ag24
ag23
ag2
aS'.'
ag19
ag24
ag2
ag23
ag16
ag15
aS'.'
ag2
ag13
ag15
ag24
ag10
ag21
aS'.'
ag19
ag22
ag11
ag24
ag5
ag14
aS'.'
ag10
ag21
ag2
ag24
ag23
ag4
aS'.'
ag11
ag24
ag5
ag4
ag20
ag2
aS'.'
ag18
ag24
ag13
ag8
ag22
ag18
aS'.'
ag8
ag9
ag15
ag24
ag22
ag11
aS'.'
ag18
ag22
ag11
ag24
ag9
ag4
aS'.'
ag15
ag16
ag10
ag24
ag5
ag4
aS'.'
ag11
ag20
ag8
ag24
ag20
ag18
aS'.'
ag8
ag24
ag19
ag22
ag5
ag15
aS'.'
ag15
ag13
ag2
ag24
ag22
ag10
aS'.'
ag18
ag13
ag14
ag24
ag21
ag8
aS'.'
ag10
ag24
ag5
ag6
ag21
ag4
aS'.'
ag18
ag16
ag15
ag24
ag2
ag23
aS'.'
ag8
ag24
ag5
ag6
ag5
ag2
aS'.'
ag10
ag24
ag21
ag19
ag21
ag2
aS'.'
ag11
ag24
ag21
ag10
ag20
ag14
aS'.'
ag8
ag21
ag18
ag24
ag23
ag6
aS'.'
ag19
ag24
ag2
ag23
ag22
ag6
aS'.'
ag14
ag20
ag2
ag24
ag23
ag18
aS'.'
ag2
ag24
ag22
ag15
ag13
ag10
aS'.'
ag10
ag9
ag15
ag24
ag13
ag18
aS'.'
ag15
ag22
ag10
ag24
ag21
ag14
aS'.'
ag14
ag9
ag10
ag24
ag2
ag23
aS'.'
ag15
ag23
ag15
ag24
ag18
ag22
aS'.'
ag2
ag24
ag15
ag22
ag16
ag10
aS'.'
ag11
ag21
ag19
ag24
ag13
ag6
aS'.'
ag11
ag24
ag10
ag21
ag5
ag19
aS'.'
ag10
ag21
ag18
ag24
ag13
ag18
aS'.'
ag11
ag9
ag10
ag24
ag21
ag4
aS'.'
ag2
ag16
ag8
ag24
ag9
ag4
aS'.'
ag8
ag24
ag15
ag22
ag21
ag15
aS'.'
ag2
ag13
ag10
ag24
ag14
ag20
aS'.'
ag15
ag22
ag19
ag24
ag6
ag21
aS'.'
ag14
ag24
ag2
ag22
ag21
ag18
aS'.'
ag10
ag24
ag5
ag15
ag9
ag4
aS'.'
ag19
ag24
ag16
ag6
ag13
ag4
aS'.'
ag18
ag23
ag14
ag24
ag4
ag21
aS'.'
ag15
ag24
ag22
ag14
ag13
ag4
aS'.'
ag19
ag24
ag16
ag4
ag16
ag8
aS'.'
ag11
ag24
ag18
ag22
ag5
ag19
aS'.'
ag18
ag22
ag8
ag24
ag21
ag11
aS'.'
ag14
ag24
ag2
ag23
ag9
ag4
aS'.'
ag15
ag24
ag16
ag18
ag22
ag8
aS'.'
ag14
ag24
ag5
ag2
ag21
ag4
aS'.'
ag2
ag24
ag16
ag10
ag22
ag14
aS'.'
ag15
ag24
ag16
ag19
ag22
ag10
aS'.'
ag10
ag24
ag9
ag10
ag20
ag10
aS'.'
ag10
ag24
ag21
ag11
ag5
ag6
aS'.'
ag14
ag24
ag5
ag4
ag9
ag15
aS'.'
ag6
ag20
ag15
ag24
ag23
ag4
aS'.'
ag10
ag9
ag10
ag24
ag20
ag10
aS'.'
ag14
ag24
ag11
ag21
ag5
ag8
aS'.'
ag8
ag24
ag20
ag11
ag9
ag10
aS'.'
ag10
ag21
ag11
ag24
ag15
ag23
aS'.'
ag11
ag9
ag19
ag24
ag16
ag8
aS'.'
ag19
ag24
ag23
ag10
ag23
ag6
aS'.'
ag11
ag24
ag21
ag6
ag5
ag8
aS'.'
ag11
ag20
ag8
ag24
ag19
ag22
aS'.'
ag14
ag24
ag8
ag20
ag5
ag18
aS'.'
ag10
ag5
ag18
ag24
ag13
ag18
aS'.'
ag14
ag24
ag14
ag21
ag21
ag19
aS'.'
ag10
ag5
ag19
ag24
ag16
ag2
aS'.'
ag19
ag24
ag23
ag8
ag16
ag8
aS'.'
ag15
ag24
ag6
ag20
ag13
ag2
aS'.'
ag15
ag24
ag16
ag2
ag16
ag2
aS'.'
ag4
ag21
ag15
ag24
ag23
ag8
aS'.'
ag19
ag24
ag23
ag14
ag13
ag18
aS'.'
ag8
ag24
ag14
ag21
ag20
ag18
aS'.'
ag14
ag21
ag14
ag24
ag20
ag6
aS'.'
ag8
ag24
ag11
ag20
ag9
ag19
aS'.'
ag4
ag20
ag18
ag24
ag18
ag22
aS'.'
ag2
ag24
ag8
ag21
ag13
ag4
aS'.'
ag8
ag24
ag20
ag8
ag5
ag8
aS'.'
ag10
ag24
ag14
ag20
ag21
ag18
aS'.'
ag19
ag24
ag15
ag22
ag16
ag4
aS'.'
ag10
ag9
ag8
ag24
ag21
ag19
aS'.'
ag19
ag24
ag23
ag2
ag13
ag6
aS'.'
ag8
ag24
ag6
ag20
ag9
ag10
aS'.'
ag14
ag24
ag2
ag23
ag21
ag4
aS'.'
ag19
ag16
ag19
ag24
ag23
ag8
aS'.'
ag8
ag9
ag11
ag24
ag21
ag10
aS'.'
ag11
ag9
ag19
ag24
ag22
ag4
aS'.'
ag19
ag24
ag6
ag20
ag23
ag8
aS'.'
ag18
ag24
ag22
ag14
ag16
ag18
aS'.'
ag11
ag20
ag8
ag24
ag5
ag2
aS'.'
ag18
ag13
ag8
ag24
ag8
ag21
aS'.'
ag15
ag23
ag8
ag24
ag21
ag11
aS'.'
ag15
ag24
ag19
ag23
ag13
ag19
aS'.'
ag10
ag24
ag11
ag20
ag5
ag11
aS'.'
ag15
ag24
ag14
ag21
ag13
ag4
aS'.'
ag10
ag24
ag9
ag2
ag20
ag6
aS'.'
ag15
ag24
ag23
ag6
ag22
ag2
aS'.'
ag11
ag5
ag19
ag24
ag23
ag15
aS'.'
ag10
ag24
ag19
ag23
ag20
ag6
aS'.'
ag15
ag24
ag4
ag20
ag23
ag2
aS'.'
ag8
ag21
ag2
ag24
ag23
ag2
aS'.'
ag6
ag21
ag14
ag24
ag14
ag21
aS'.'
ag15
ag23
ag11
ag24
ag11
ag21
aS'.'
ag8
ag20
ag10
ag24
ag20
ag10
aS'.'
ag11
ag21
ag10
ag24
ag15
ag22
aS'.'
ag2
ag22
ag19
ag24
ag18
ag23
aS'.'
ag6
ag5
ag18
ag24
ag11
ag21
aS'.'
ag2
ag24
ag16
ag19
ag23
ag2
aS'.'
ag14
ag24
ag5
ag2
ag5
ag19
aS'.'
ag11
ag24
ag5
ag19
ag9
ag8
aS'.'
ag10
ag20
ag10
ag24
ag5
ag2
aS'.'
ag18
ag24
ag6
ag20
ag23
ag10
aS'.'
ag8
ag24
ag5
ag2
ag5
ag11
aS'.'
ag2
ag23
ag2
ag24
ag23
ag15
aS'.'
ag6
ag20
ag15
ag24
ag13
ag14
aS'.'
ag2
ag24
ag15
ag23
ag13
ag14
aS'.'
ag18
ag24
ag11
ag21
ag16
ag4
aS'.'
ag6
ag9
ag14
ag24
ag2
ag23
aS'.'
ag15
ag24
ag16
ag19
ag22
ag10
aS'.'
ag15
ag22
ag18
ag24
ag23
ag10
aS'.'
ag10
ag9
ag2
ag24
ag15
ag22
aS'.'
ag11
ag24
ag20
ag19
ag21
ag14
aS'.'
ag15
ag24
ag13
ag11
ag13
ag14
aS'.'
ag6
ag21
ag8
ag24
ag8
ag20
aS'.'
ag10
ag5
ag10
ag24
ag9
ag18
aS'.'
ag8
ag24
ag9
ag10
ag5
ag8
aS'.'
ag15
ag23
ag8
ag24
ag21
ag4
aS'.'
ag18
ag13
ag18
ag24
ag23
ag18
aS'.'
ag19
ag24
ag22
ag11
ag16
ag6
aS'.'
ag11
ag20
ag18
ag24
ag23
ag2
aS'.'
ag15
ag23
ag18
ag24
ag11
ag21
aS'.'
ag2
ag24
ag16
ag10
ag22
ag6
aS'.'
ag8
ag20
ag19
ag24
ag23
ag6
aS'.'
ag2
ag13
ag18
ag24
ag2
ag22
aS'.'
ag15
ag24
ag11
ag21
ag13
ag19
aS'.'
ag8
ag9
ag8
ag24
ag20
ag18
aS'.'
ag11
ag24
ag21
ag6
ag21
ag19
aS'.'
ag15
ag23
ag10
ag24
ag21
ag10
aS'.'
ag10
ag24
ag9
ag19
ag9
ag8
aS'.'
ag18
ag24
ag23
ag11
ag13
ag8
aS'.'
ag11
ag24
ag9
ag11
ag9
ag8
aS'.'
ag10
ag24
ag21
ag6
ag20
ag18
aS'.'
ag10
ag9
ag10
ag24
ag21
ag19
aS'.'
ag2
ag24
ag4
ag21
ag23
ag11
aS'.'
ag15
ag13
ag18
ag24
ag15
ag22
aS'.'
ag11
ag24
ag20
ag15
ag21
ag19
aS'.'
ag10
ag24
ag9
ag10
ag5
ag2
aS'.'
ag8
ag24
ag20
ag10
ag20
ag15
aS'.'
ag8
ag24
ag2
ag22
ag9
ag14
aS'.'
ag10
ag24
ag21
ag6
ag20
ag15
aS'.'
ag18
ag23
ag8
ag24
ag21
ag18
aS'.'
ag15
ag23
ag11
ag24
ag21
ag15
aS'.'
ag2
ag22
ag14
ag24
ag9
ag14
aS'.'
ag19
ag24
ag13
ag19
ag22
ag8
aS'.'
ag15
ag16
ag2
ag24
ag13
ag18
aS'.'
ag10
ag24
ag21
ag4
ag21
ag2
aS'.'
ag8
ag24
ag9
ag15
ag20
ag8
aS'.'
ag14
ag21
ag11
ag24
ag21
ag15
aS'.'
ag10
ag24
ag21
ag6
ag9
ag14
aS'.'
ag10
ag20
ag14
ag24
ag5
ag4
aS'.'
ag10
ag24
ag19
ag22
ag21
ag15
aS'.'
ag4
ag9
ag11
ag24
ag21
ag14
aS'.'
ag15
ag22
ag15
ag24
ag19
ag23
aS'.'
ag6
ag20
ag14
ag24
ag18
ag23
aS'.'
ag14
ag24
ag21
ag6
ag9
ag19
aS'.'
ag14
ag20
ag11
ag24
ag21
ag18
aS'.'
ag15
ag24
ag13
ag4
ag23
ag4
aS'.'
ag10
ag24
ag21
ag10
ag9
ag15
aS'.'
ag2
ag24
ag23
ag8
ag22
ag14
aS'.'
ag18
ag24
ag16
ag10
ag23
ag19
aS'.'
ag4
ag9
ag15
ag24
ag6
ag21
aS'.'
ag19
ag24
ag23
ag15
ag22
ag8
aS'.'
ag2
ag24
ag16
ag19
ag22
ag2
aS'.'
ag8
ag21
ag14
ag24
ag5
ag4
aS'.'
ag15
ag16
ag8
ag24
ag8
ag20
aS'.'
ag10
ag21
ag11
ag24
ag21
ag10
aS'.'
ag19
ag24
ag22
ag8
ag16
ag19
aS'.'
ag10
ag5
ag19
ag24
ag22
ag6
aS'.'
ag2
ag24
ag13
ag8
ag22
ag2
aS'.'
ag10
ag24
ag21
ag15
ag21
ag10
aS'.'
ag2
ag24
ag13
ag6
ag22
ag18
aS'.'
ag15
ag16
ag11
ag24
ag8
ag20
aS'.'
ag14
ag9
ag11
ag24
ag21
ag8
aS'.'
ag11
ag24
ag11
ag20
ag21
ag19
aS'.'
ag6
ag20
ag18
ag24
ag13
ag19
aS'.'
ag19
ag24
ag15
ag23
ag13
ag11
aS'.'
ag4
ag21
ag15
ag24
ag4
ag21
aS'.'
ag6
ag9
ag2
ag24
ag6
ag21
aS'.'
ag8
ag5
ag19
ag24
ag16
ag4
aS'.'
ag8
ag21
ag10
ag24
ag4
ag21
aS'.'
ag8
ag24
ag4
ag20
ag20
ag19
aS'.'
ag18
ag24
ag23
ag19
ag22
ag15
aS'.'
ag8
ag21
ag14
ag24
ag6
ag21
aS'.'
ag2
ag23
ag8
ag24
ag21
ag18
aS'.'
ag8
ag24
ag5
ag6
ag9
ag8
aS'.'
ag18
ag16
ag18
ag24
ag16
ag8
aS'.'
ag10
ag24
ag5
ag4
ag20
ag15
aS'.'
ag10
ag24
ag6
ag21
ag21
ag18
aS'.'
ag11
ag21
ag2
ag24
ag23
ag10
aS'.'
ag15
ag24
ag6
ag20
ag16
ag8
aS'.'
ag4
ag21
ag18
ag24
ag13
ag14
aS'.'
ag11
ag9
ag2
ag24
ag22
ag4
aS'.'
ag8
ag24
ag5
ag15
ag9
ag2
aS'.'
ag6
ag20
ag2
ag24
ag13
ag18
aS'.'
ag15
ag24
ag22
ag10
ag13
ag10
aS'.'
ag8
ag9
ag14
ag24
ag9
ag2
aS'.'
ag2
ag16
ag10
ag24
ag20
ag19
aS'.'
ag18
ag24
ag22
ag15
ag22
ag14
aS'.'
ag2
ag24
ag6
ag21
ag13
ag18
aS'.'
ag8
ag24
ag20
ag6
ag21
ag19
aS'.'
ag19
ag24
ag8
ag20
ag22
ag10
aS'.'
ag8
ag24
ag15
ag22
ag9
ag19
aS'.'
ag15
ag24
ag23
ag6
ag22
ag14
aS'.'
ag8
ag20
ag19
ag24
ag2
ag22
aS'.'
ag19
ag24
ag6
ag21
ag23
ag14
aS'.'
ag18
ag24
ag15
ag22
ag22
ag10
aS'.'
ag4
ag5
ag2
ag24
ag16
ag10
aS'.'
ag19
ag24
ag22
ag19
ag23
ag11
aS'.'
ag10
ag21
ag14
ag24
ag21
ag18
aS'.'
ag4
ag21
ag19
ag24
ag23
ag10
aS'.'
ag18
ag23
ag10
ag24
ag9
ag11
aS'.'
ag11
ag24
ag21
ag11
ag20
ag11
aS'.'
ag10
ag24
ag9
ag15
ag20
ag10
aS'.'
ag19
ag16
ag11
ag24
ag9
ag2
aS'.'
ag18
ag13
ag18
ag24
ag23
ag14
aS'.'
ag18
ag24
ag23
ag18
ag23
ag4
aS'.'
ag11
ag24
ag9
ag8
ag5
ag18
aS'.'
ag4
ag21
ag10
ag24
ag21
ag10
aS'.'
ag14
ag24
ag10
ag21
ag20
ag2
aS'.'
ag18
ag22
ag8
ag24
ag20
ag19
aS'.'
ag11
ag20
ag19
ag24
ag16
ag10
aS'.'
ag15
ag24
ag13
ag2
ag16
ag11
aS'.'
ag8
ag9
ag11
ag24
ag21
ag19
aS'.'
ag14
ag20
ag15
ag24
ag16
ag11
aS'.'
ag14
ag24
ag10
ag20
ag21
ag11
aS'.'
ag8
ag20
ag15
ag24
ag23
ag6
aS'.'
ag8
ag9
ag15
ag24
ag22
ag19
aS'.'
ag15
ag24
ag22
ag18
ag16
ag2
aS'.'
ag8
ag20
ag15
ag24
ag23
ag2
aS'.'
ag10
ag24
ag5
ag19
ag20
ag14
aS'.'
ag19
ag23
ag15
ag24
ag16
ag8
aS'.'
ag2
ag24
ag10
ag20
ag23
ag4
aS'.'
ag10
ag24
ag9
ag2
ag9
ag10
aS'.'
ag18
ag24
ag22
ag2
ag16
ag15
aS'.'
ag10
ag24
ag9
ag8
ag21
ag18
aS'.'
ag15
ag24
ag13
ag8
ag13
ag2
aS'.'
ag14
ag24
ag9
ag18
ag9
ag18
aS'.'
ag10
ag24
ag15
ag22
ag21
ag4
aS'.'
ag11
ag21
ag8
ag24
ag9
ag19
aS'.'
ag2
ag24
ag13
ag4
ag23
ag18
aS'.'
ag10
ag24
ag5
ag14
ag21
ag6
aS'.'
ag14
ag21
ag10
ag24
ag4
ag20
aS'.'
ag8
ag20
ag11
ag24
ag8
ag20
aS'.'
ag8
ag24
ag6
ag21
ag21
ag4
aS'.'
ag14
ag24
ag21
ag2
ag20
ag10
aS'.'
ag14
ag24
ag9
ag18
ag21
ag4
aS'.'
ag2
ag13
ag11
ag24
ag5
ag10
aS'.'
ag19
ag24
ag14
ag20
ag13
ag4
aS'.'
ag11
ag24
ag21
ag6
ag9
ag14
aS'.'
ag18
ag24
ag16
ag4
ag13
ag10
aS'.'
ag10
ag21
ag11
ag24
ag5
ag4
aS'.'
ag10
ag24
ag18
ag22
ag20
ag11
aS'.'
ag10
ag21
ag11
ag24
ag21
ag19
aS'.'
ag2
ag24
ag16
ag10
ag22
ag10
aS'.'
ag8
ag24
ag6
ag20
ag5
ag2
aS'.'
ag8
ag24
ag5
ag8
ag20
ag4
aS'.'
ag6
ag5
ag8
ag24
ag8
ag20
aS'.'
ag8
ag24
ag9
ag8
ag20
ag11
aS'.'
ag19
ag24
ag23
ag11
ag23
ag2
aS'.'
ag15
ag24
ag13
ag8
ag13
ag2
aS'.'
ag18
ag23
ag14
ag24
ag21
ag6
aS'.'
ag10
ag24
ag15
ag23
ag9
ag15
aS'.'
ag6
ag5
ag2
ag24
ag4
ag20
aS'.'
ag15
ag24
ag8
ag20
ag13
ag6
aS'.'
ag15
ag24
ag16
ag11
ag13
ag2
aS'.'
ag10
ag24
ag20
ag8
ag9
ag15
aS'.'
ag11
ag24
ag6
ag20
ag21
ag14
aS'.'
ag6
ag20
ag18
ag24
ag16
ag18
aS'.'
ag2
ag24
ag23
ag6
ag16
ag2
aS'.'
ag2
ag23
ag10
ag24
ag21
ag2
aS'.'
ag11
ag24
ag21
ag15
ag9
ag14
aS'.'
ag14
ag24
ag8
ag21
ag21
ag11
aS'.'
ag11
ag24
ag20
ag4
ag20
ag15
aS'.'
ag15
ag24
ag10
ag21
ag22
ag18
aS'.'
ag4
ag20
ag10
ag24
ag14
ag21
aS'.'
ag14
ag24
ag20
ag10
ag21
ag2
aS'.'
ag18
ag24
ag23
ag2
ag16
ag10
aS'.'
ag11
ag24
ag4
ag20
ag21
ag15
aS'.'
ag2
ag24
ag16
ag6
ag16
ag4
aS'.'
ag19
ag23
ag18
ag24
ag18
ag23
aS'.'
ag8
ag9
ag8
ag24
ag21
ag6
aS'.'
ag18
ag23
ag10
ag24
ag21
ag4
aS'.'
ag19
ag24
ag23
ag6
ag22
ag15
aS'.'
ag11
ag24
ag5
ag19
ag20
ag11
aS'.'
ag2
ag16
ag19
ag24
ag8
ag20
aS'.'
ag14
ag5
ag14
ag24
ag14
ag20
aS'.'
ag8
ag21
ag2
ag24
ag16
ag10
aS'.'
ag2
ag24
ag13
ag6
ag16
ag2
aS'.'
ag18
ag23
ag15
ag24
ag23
ag18
aS'.'
ag14
ag24
ag10
ag21
ag9
ag11
aS'.'
ag14
ag5
ag11
ag24
ag5
ag19
aS'.'
ag11
ag24
ag10
ag20
ag21
ag18
aS'.'
ag6
ag21
ag8
ag24
ag6
ag21
aS'.'
ag15
ag24
ag16
ag8
ag22
ag15
aS'.'
ag18
ag24
ag4
ag21
ag22
ag6
aS'.'
ag14
ag24
ag18
ag23
ag20
ag8
aS'.'
ag8
ag24
ag9
ag14
ag9
ag15
aS'.'
ag6
ag21
ag19
ag24
ag16
ag8
aS'.'
ag2
ag24
ag4
ag20
ag22
ag4
aS'.'
ag18
ag24
ag22
ag4
ag23
ag19
aS'.'
ag8
ag5
ag2
ag24
ag13
ag18
aS'.'
ag15
ag24
ag15
ag23
ag23
ag6
aS'.'
ag18
ag23
ag2
ag24
ag13
ag18
aS'.'
ag10
ag24
ag20
ag18
ag20
ag19
aS'.'
ag8
ag20
ag14
ag24
ag2
ag22
aS'.'
ag18
ag24
ag23
ag19
ag16
ag10
aS'.'
ag14
ag24
ag4
ag20
ag21
ag2
aS'.'
ag14
ag21
ag10
ag24
ag11
ag20
aS'.'
ag2
ag16
ag14
ag24
ag9
ag18
aS'.'
ag18
ag24
ag10
ag21
ag13
ag19
aS'.'
ag2
ag24
ag23
ag4
ag13
ag11
aS'.'
ag15
ag24
ag22
ag2
ag16
ag2
aS'.'
ag11
ag24
ag6
ag21
ag5
ag18
aS'.'
ag15
ag13
ag11
ag24
ag21
ag2
aS'.'
ag10
ag20
ag2
ag24
ag13
ag15
aS'.'
ag14
ag21
ag2
ag24
ag13
ag4
aS'.'
ag6
ag5
ag18
ag24
ag16
ag2
aS'.'
ag8
ag24
ag14
ag20
ag21
ag4
aS'.'
ag6
ag21
ag11
ag24
ag4
ag21
aS'.'
ag15
ag24
ag14
ag20
ag13
ag11
aS'.'
ag11
ag21
ag10
ag24
ag20
ag8
aS'.'
ag4
ag21
ag10
ag24
ag14
ag20
aS'.'
ag8
ag21
ag14
ag24
ag21
ag19
aS'.'
ag15
ag22
ag11
ag24
ag5
ag2
aS'.'
ag6
ag5
ag10
ag24
ag20
ag18
aS'.'
ag14
ag21
ag11
ag24
ag21
ag4
aS'.'
ag18
ag24
ag13
ag14
ag13
ag4
aS'.'
ag19
ag24
ag19
ag23
ag23
ag19
aS'.'
ag4
ag20
ag8
ag24
ag9
ag18
aS'.'
ag19
ag24
ag14
ag20
ag22
ag14
aS'.'
ag19
ag24
ag23
ag19
ag22
ag10
aS'.'
ag15
ag24
ag22
ag4
ag22
ag10
aS'.'
ag11
ag5
ag14
ag24
ag20
ag4
aS'.'
ag8
ag5
ag19
ag24
ag16
ag6
aS'.'
ag11
ag20
ag11
ag24
ag14
ag21
aS'.'
ag10
ag20
ag18
ag24
ag16
ag11
aS'.'
ag8
ag9
ag8
ag24
ag18
ag22
aS'.'
ag10
ag24
ag11
ag20
ag5
ag6
aS'.'
ag11
ag24
ag19
ag23
ag20
ag14
aS'.'
ag2
ag24
ag16
ag14
ag13
ag19
aS'.'
ag11
ag24
ag5
ag19
ag5
ag11
aS'.'
ag10
ag24
ag4
ag21
ag20
ag19
aS'.'
ag8
ag24
ag18
ag23
ag20
ag18
aS'.'
ag10
ag24
ag20
ag4
ag9
ag2
aS'.'
ag2
ag24
ag22
ag11
ag22
ag11
aS'.'
ag19
ag23
ag19
ag24
ag22
ag14
aS'.'
ag6
ag9
ag11
ag24
ag14
ag20
aS'.'
ag8
ag24
ag19
ag23
ag21
ag11
aS'.'
ag18
ag24
ag23
ag19
ag13
ag2
aS'.'
ag4
ag21
ag18
ag24
ag22
ag8
aS'.'
ag2
ag24
ag22
ag18
ag16
ag14
aS'.'
ag2
ag13
ag10
ag24
ag5
ag4
aS'.'
ag8
ag24
ag4
ag21
ag20
ag18
aS'.'
ag15
ag16
ag15
ag24
ag16
ag19
aS'.'
ag6
ag20
ag2
ag24
ag16
ag19
aS'.'
ag19
ag16
ag19
ag24
ag22
ag10
aS'.'
ag8
ag24
ag21
ag8
ag9
ag2
aS'.'
ag18
ag23
ag8
ag24
ag2
ag23
aS'.'
ag10
ag21
ag14
ag24
ag5
ag19
aS'.'
ag19
ag22
ag18
ag24
ag23
ag6
aS'.'
ag14
ag21
ag10
ag24
ag9
ag2
aS'.'
ag11
ag24
ag5
ag2
ag20
ag10
aS'.'
ag19
ag13
ag11
ag24
ag8
ag20
aS'.'
ag8
ag24
ag21
ag10
ag20
ag19
aS'.'
ag8
ag21
ag2
ag24
ag23
ag4
aS'.'
ag15
ag24
ag23
ag6
ag23
ag4
aS'.'
ag19
ag16
ag11
ag24
ag20
ag19
aS'.'
ag8
ag24
ag14
ag21
ag21
ag11
aS'.'
ag18
ag24
ag15
ag23
ag13
ag6
aS'.'
ag15
ag22
ag19
ag24
ag6
ag20
aS'.'
ag4
ag21
ag10
ag24
ag20
ag6
aS'.'
ag8
ag24
ag18
ag23
ag20
ag18
aS'.'
ag8
ag24
ag21
ag4
ag20
ag6
aS'.'
ag6
ag21
ag10
ag24
ag4
ag20
aS'.'
ag2
ag24
ag22
ag8
ag22
ag14
aS'.'
ag19
ag24
ag16
ag2
ag13
ag14
aS'.'
ag18
ag16
ag2
ag24
ag16
ag10
aS'.'
ag2
ag23
ag11
ag24
ag21
ag19
aS'.'
ag15
ag24
ag10
ag21
ag22
ag18
aS'.'
ag8
ag24
ag5
ag18
ag9
ag2
aS'.'
ag8
ag24
ag5
ag6
ag5
ag15
aS'.'
ag2
ag24
ag18
ag23
ag22
ag10
aS'.'
ag18
ag24
ag2
ag22
ag22
ag11
aS'.'
ag15
ag24
ag16
ag11
ag23
ag2
aS'.'
ag18
ag22
ag11
ag24
ag20
ag4
aS'.'
ag6
ag5
ag11
ag24
ag21
ag11
aS'.'
ag15
ag24
ag15
ag23
ag22
ag10
aS'.'
ag11
ag24
ag21
ag2
ag9
ag19
aS'.'
ag6
ag9
ag8
ag24
ag20
ag2
aS'.'
ag15
ag24
ag11
ag21
ag23
ag18
aS'.'
ag8
ag24
ag21
ag14
ag20
ag10
aS'.'
ag14
ag24
ag9
ag18
ag21
ag18
aS'.'
ag18
ag24
ag16
ag19
ag22
ag15
aS'.'
ag10
ag24
ag11
ag20
ag21
ag19
aS'.'
ag8
ag24
ag21
ag10
ag9
ag11
aS'.'
ag18
ag23
ag15
ag24
ag22
ag18
aS'.'
ag14
ag24
ag5
ag19
ag20
ag14
aS'.'
ag18
ag24
ag22
ag18
ag13
ag2
aS'.'
ag14
ag5
ag15
ag24
ag13
ag4
aS'.'
ag11
ag24
ag6
ag21
ag9
ag14
aS'.'
ag14
ag24
ag20
ag11
ag9
ag10
aS'.'
ag14
ag24
ag20
ag6
ag21
ag2
aS'.'
ag14
ag24
ag21
ag11
ag9
ag14
aS'.'
ag18
ag24
ag19
ag22
ag13
ag10
aS'.'
ag10
ag9
ag8
ag24
ag21
ag4
aS'.'
ag18
ag22
ag10
ag24
ag21
ag18
aS'.'
ag6
ag21
ag18
ag24
ag22
ag19
aS'.'
ag11
ag9
ag15
ag24
ag15
ag23
aS'.'
ag18
ag24
ag23
ag14
ag23
ag11
aS'.'
ag18
ag24
ag16
ag15
ag13
ag14
aS'.'
ag6
ag5
ag19
ag24
ag22
ag11
aS'.'
ag18
ag24
ag16
ag14
ag13
ag19
aS'.'
ag18
ag23
ag8
ag24
ag21
ag8
aS'.'
ag15
ag24
ag13
ag10
ag16
ag10
aS'.'
ag8
ag24
ag20
ag10
ag5
ag19
aS'.'
ag6
ag20
ag10
ag24
ag20
ag15
aS'.'
ag8
ag24
ag11
ag20
ag9
ag11
aS'.'
ag10
ag5
ag14
ag24
ag18
ag22
aS'.'
ag18
ag13
ag10
ag24
ag9
ag11
aS'.'
ag15
ag24
ag6
ag20
ag13
ag10
aS'.'
ag8
ag24
ag9
ag2
ag5
ag15
aS'.'
ag14
ag24
ag19
ag23
ag20
ag2
aS'.'
ag10
ag24
ag4
ag20
ag9
ag2
aS'.'
ag8
ag5
ag2
ag24
ag18
ag22
aS'.'
ag4
ag9
ag15
ag24
ag18
ag23
aS'.'
ag10
ag24
ag9
ag18
ag5
ag15
aS'.'
ag19
ag24
ag13
ag2
ag22
ag15
aS'.'
ag8
ag9
ag14
ag24
ag20
ag4
aS'.'
ag14
ag24
ag20
ag4
ag5
ag10
aS'.'
ag11
ag21
ag19
ag24
ag22
ag15
aS'.'
ag15
ag24
ag13
ag14
ag16
ag14
aS'.'
ag14
ag21
ag18
ag24
ag23
ag19
aS'.'
ag8
ag9
ag11
ag24
ag5
ag11
aS'.'
ag2
ag13
ag15
ag24
ag16
ag11
aS'.'
ag15
ag24
ag22
ag11
ag22
ag18
aS'.'
ag19
ag24
ag13
ag19
ag16
ag8
aS'.'
ag8
ag24
ag8
ag20
ag5
ag6
aS'.'
ag14
ag24
ag9
ag10
ag5
ag6
aS'.'
ag18
ag13
ag15
ag24
ag23
ag19
aS'.'
ag2
ag22
ag14
ag24
ag18
ag22
aS'.'
ag10
ag24
ag21
ag2
ag21
ag11
aS'.'
ag2
ag24
ag22
ag2
ag13
ag2
aS'.'
ag2
ag16
ag18
ag24
ag13
ag14
aS'.'
ag18
ag24
ag19
ag22
ag23
ag10
aS'.'
ag14
ag21
ag18
ag24
ag23
ag8
aS'.'
ag2
ag23
ag11
ag24
ag9
ag6
aS'.'
ag6
ag21
ag19
ag24
ag22
ag2
aS'.'
ag6
ag5
ag11
ag24
ag21
ag8
aS'.'
ag19
ag23
ag8
ag24
ag9
ag6
aS'.'
ag15
ag22
ag19
ag24
ag10
ag20
aS'.'
ag18
ag23
ag19
ag24
ag6
ag20
aS'.'
ag11
ag21
ag15
ag24
ag2
ag23
aS'.'
ag2
ag24
ag11
ag20
ag23
ag8
aS'.'
ag10
ag24
ag5
ag19
ag9
ag2
aS'.'
ag18
ag24
ag22
ag4
ag22
ag6
aS'.'
ag11
ag5
ag18
ag24
ag18
ag23
aS'.'
ag19
ag13
ag15
ag24
ag16
ag11
aS'.'
ag18
ag24
ag8
ag21
ag22
ag6
aS'.'
ag4
ag5
ag19
ag24
ag22
ag11
aS'.'
ag6
ag5
ag18
ag24
ag22
ag19
aS'.'
ag11
ag24
ag2
ag23
ag20
ag11
aS'.'
ag19
ag13
ag10
ag24
ag9
ag10
aS'.'
ag19
ag22
ag18
ag24
ag11
ag20
aS'.'
ag15
ag24
ag22
ag11
ag23
ag6
aS'.'
ag15
ag23
ag19
ag24
ag16
ag19
aS'.'
ag10
ag9
ag10
ag24
ag2
ag22
aS'.'
ag10
ag24
ag5
ag2
ag21
ag6
aS'.'
ag15
ag24
ag22
ag8
ag22
ag8
aS'.'
ag10
ag24
ag5
ag15
ag9
ag10
aS'.'
ag10
ag24
ag5
ag10
ag20
ag14
aS'.'
ag4
ag5
ag18
ag24
ag23
ag4
aS'.'
ag10
ag21
ag14
ag24
ag15
ag22
aS'.'
ag2
ag16
ag15
ag24
ag13
ag8
aS'.'
ag14
ag24
ag9
ag18
ag20
ag10
aS'.'
ag8
ag24
ag20
ag11
ag5
ag19
aS'.'
ag8
ag24
ag5
ag10
ag21
ag15
aS'.'
ag11
ag24
ag9
ag6
ag9
ag8
aS'.'
ag4
ag20
ag10
ag24
ag18
ag23
aS'.'
ag14
ag20
ag11
ag24
ag19
ag22
aS'.'
ag19
ag24
ag13
ag8
ag16
ag10
aS'.'
ag8
ag20
ag2
ag24
ag23
ag10
aS'.'
ag18
ag22
ag18
ag24
ag16
ag6
aS'.'
ag18
ag16
ag14
ag24
ag14
ag21
aS'.'
ag15
ag23
ag2
ag24
ag13
ag19
aS'.'
ag2
ag23
ag18
ag24
ag23
ag15
aS'.'
ag2
ag22
ag19
ag24
ag13
ag10
aS'.'
ag2
ag24
ag15
ag23
ag23
ag18
aS'.'
ag19
ag16
ag2
ag24
ag22
ag4
aS'.'
ag8
ag5
ag19
ag24
ag23
ag2
aS'.'
ag10
ag24
ag20
ag6
ag20
ag4
aS'.'
ag14
ag20
ag18
ag24
ag16
ag4
aS'.'
ag18
ag24
ag22
ag11
ag16
ag2
aS'.'
ag14
ag24
ag10
ag20
ag5
ag15
aS'.'
ag19
ag24
ag13
ag8
ag16
ag8
aS'.'
ag11
ag24
ag4
ag20
ag20
ag6
aS'.'
ag11
ag20
ag18
ag24
ag16
ag4
aS'.'
ag15
ag24
ag8
ag20
ag13
ag15
aS'.'
ag2
ag22
ag19
ag24
ag11
ag20
aS'.'
ag10
ag5
ag11
ag24
ag18
ag22
aS'.'
ag10
ag24
ag9
ag8
ag20
ag2
aS'.'
ag14
ag24
ag20
ag11
ag21
ag6
aS'.'
ag11
ag24
ag9
ag10
ag20
ag6
aS'.'
ag2
ag13
ag2
ag24
ag22
ag18
aS'.'
ag8
ag24
ag9
ag14
ag21
ag11
aS'.'
ag2
ag24
ag22
ag11
ag23
ag6
aS'.'
ag19
ag24
ag10
ag20
ag13
ag11
aS'.'
ag18
ag24
ag6
ag20
ag13
ag11
aS'.'
ag15
ag23
ag14
ag24
ag9
ag14
aS'.'
ag10
ag21
ag18
ag24
ag4
ag21
aS'.'
ag19
ag16
ag19
ag24
ag4
ag20
aS'.'
ag18
ag13
ag10
ag24
ag5
ag11
aS'.'
ag15
ag24
ag16
ag11
ag22
ag14
aS'.'
ag11
ag20
ag19
ag24
ag23
ag8
aS'.'
ag11
ag20
ag11
ag24
ag20
ag6
aS'.'
ag11
ag5
ag19
ag24
ag22
ag19
aS'.'
ag14
ag20
ag18
ag24
ag16
ag15
aS'.'
ag2
ag13
ag18
ag24
ag18
ag23
aS'.'
ag14
ag24
ag5
ag4
ag20
ag2
aS'.'
ag18
ag16
ag18
ag24
ag23
ag19
aS'.'
ag15
ag24
ag23
ag15
ag16
ag2
aS'.'
ag19
ag24
ag13
ag19
ag16
ag19
aS'.'
ag6
ag9
ag2
ag24
ag19
ag23
aS'.'
ag18
ag16
ag2
ag24
ag2
ag23
aS'.'
ag14
ag21
ag15
ag24
ag14
ag21
aS'.'
ag19
ag23
ag15
ag24
ag13
ag2
aS'.'
ag8
ag20
ag8
ag24
ag21
ag8
aS'.'
ag8
ag24
ag21
ag2
ag20
ag10
aS'.'
ag18
ag24
ag22
ag6
ag13
ag2
aS'.'
ag2
ag24
ag13
ag19
ag13
ag18
aS'.'
ag18
ag24
ag16
ag18
ag13
ag10
aS'.'
ag11
ag24
ag10
ag20
ag9
ag19
aS'.'
ag4
ag21
ag18
ag24
ag23
ag6
aS'.'
ag10
ag24
ag5
ag2
ag20
ag8
aS'.'
ag19
ag22
ag15
ag24
ag23
ag4
aS'.'
ag4
ag9
ag15
ag24
ag13
ag2
aS'.'
ag19
ag13
ag2
ag24
ag22
ag10
aS'.'
ag19
ag24
ag13
ag11
ag22
ag11
aS'.'
ag8
ag5
ag2
ag24
ag16
ag15
aS'.'
ag11
ag24
ag5
ag2
ag21
ag6
aS'.'
ag10
ag5
ag18
ag24
ag10
ag20
aS'.'
ag2
ag23
ag15
ag24
ag22
ag6
aS'.'
ag15
ag24
ag19
ag22
ag16
ag6
aS'.'
ag2
ag24
ag22
ag11
ag22
ag10
aS'.'
ag14
ag24
ag14
ag21
ag20
ag2
aS'.'
ag2
ag24
ag16
ag4
ag22
ag10
aS'.'
ag4
ag20
ag10
ag24
ag5
ag11
aS'.'
ag11
ag24
ag9
ag18
ag5
ag2
aS'.'
ag2
ag24
ag23
ag6
ag22
ag15
aS'.'
ag18
ag22
ag8
ag24
ag5
ag18
aS'.'
ag10
ag24
ag14
ag20
ag9
ag15
aS'.'
ag11
ag5
ag10
ag24
ag5
ag14
aS'.'
ag4
ag9
ag15
ag24
ag22
ag10
aS'.'
ag15
ag24
ag23
ag6
ag23
ag4
aS'.'
ag10
ag5
ag10
ag24
ag5
ag2
aS'.'
ag15
ag24
ag23
ag14
ag13
ag11
aS'.'
ag2
ag23
ag10
ag24
ag11
ag20
aS'.'
ag10
ag20
ag19
ag24
ag11
ag20
aS'.'
ag14
ag24
ag21
ag10
ag21
ag15
aS'.'
ag6
ag21
ag10
ag24
ag6
ag21
aS'.'
ag15
ag23
ag11
ag24
ag8
ag21
aS'.'
ag14
ag24
ag20
ag6
ag9
ag8
aS'.'
ag4
ag5
ag19
ag24
ag16
ag8
aS'.'
ag10
ag24
ag21
ag2
ag21
ag19
aS'.'
ag10
ag24
ag21
ag18
ag5
ag18
aS'.'
ag8
ag24
ag10
ag20
ag5
ag8
aS'.'
ag14
ag24
ag9
ag19
ag21
ag2
aS'.'
ag14
ag21
ag11
ag24
ag20
ag10
aS'.'
ag18
ag24
ag23
ag14
ag16
ag6
aS'.'
ag14
ag24
ag4
ag20
ag21
ag15
aS'.'
ag19
ag24
ag16
ag2
ag16
ag6
aS'.'
ag19
ag22
ag2
ag24
ag13
ag15
aS'.'
ag14
ag20
ag14
ag24
ag4
ag21
aS'.'
ag14
ag9
ag10
ag24
ag20
ag4
aS'.'
ag8
ag24
ag20
ag19
ag5
ag18
aS'.'
ag19
ag22
ag10
ag24
ag21
ag8
aS'.'
ag11
ag24
ag6
ag20
ag9
ag14
aS'.'
ag8
ag24
ag9
ag18
ag21
ag4
aS'.'
ag11
ag9
ag2
ag24
ag22
ag15
aS'.'
ag14
ag24
ag9
ag18
ag9
ag18
aS'.'
ag10
ag24
ag19
ag23
ag9
ag11
aS'.'
ag2
ag24
ag16
ag19
ag22
ag8
aS'.'
ag11
ag24
ag9
ag11
ag9
ag8
aS'.'
ag11
ag24
ag8
ag21
ag21
ag8
aS'.'
ag2
ag16
ag18
ag24
ag22
ag8
aS'.'
ag18
ag24
ag13
ag11
ag22
ag15
aS'.'
ag14
ag9
ag19
ag24
ag22
ag2
aS'.'
ag8
ag24
ag20
ag11
ag20
ag15
aS'.'
ag2
ag13
ag18
ag24
ag23
ag11
aS'.'
ag14
ag21
ag10
ag24
ag2
ag22
aS'.'
ag18
ag24
ag16
ag14
ag16
ag8
aS'.'
ag11
ag9
ag19
ag24
ag23
ag6
aS'.'
ag19
ag24
ag23
ag2
ag13
ag8
aS'.'
ag2
ag16
ag2
ag24
ag22
ag14
aS'.'
ag10
ag9
ag2
ag24
ag16
ag6
aS'.'
ag4
ag5
ag14
ag24
ag5
ag8
aS'.'
ag18
ag23
ag15
ag24
ag22
ag4
aS'.'
ag14
ag24
ag20
ag4
ag9
ag11
aS'.'
ag11
ag21
ag8
ag24
ag9
ag15
aS'.'
ag2
ag24
ag16
ag2
ag23
ag14
aS'.'
ag15
ag16
ag14
ag24
ag9
ag15
aS'.'
ag19
ag13
ag10
ag24
ag21
ag2
aS'.'
ag4
ag20
ag18
ag24
ag23
ag4
aS'.'
ag19
ag24
ag16
ag18
ag23
ag10
aS'.'
ag14
ag20
ag10
ag24
ag5
ag8
aS'.'
ag19
ag24
ag16
ag18
ag23
ag6
aS'.'
ag4
ag5
ag18
ag24
ag18
ag23
aS'.'
ag10
ag9
ag14
ag24
ag5
ag8
aS'.'
ag10
ag5
ag19
ag24
ag2
ag23
aS'.'
ag19
ag24
ag8
ag21
ag22
ag10
aS'.'
ag19
ag23
ag8
ag24
ag9
ag14
aS'.'
ag18
ag23
ag11
ag24
ag18
ag23
aS'.'
ag14
ag24
ag21
ag8
ag5
ag10
aS'.'
ag4
ag20
ag15
ag24
ag19
ag23
aS'.'
ag18
ag24
ag19
ag23
ag13
ag8
aS'.'
ag4
ag21
ag14
ag24
ag21
ag2
aS'.'
ag15
ag24
ag13
ag8
ag22
ag18
aS'.'
ag8
ag24
ag6
ag20
ag5
ag11
aS'.'
ag15
ag24
ag13
ag15
ag22
ag2
aS'.'
ag2
ag24
ag6
ag21
ag16
ag10
aS'.'
ag2
ag22
ag15
ag24
ag16
ag10
aS'.'
ag2
ag24
ag8
ag21
ag16
ag15
aS'.'
ag11
ag24
ag15
ag22
ag21
ag10
aS'.'
ag14
ag24
ag5
ag8
ag21
ag18
aS'.'
ag8
ag24
ag20
ag15
ag5
ag15
aS'.'
ag8
ag24
ag5
ag10
ag21
ag8
aS'.'
ag8
ag5
ag10
ag24
ag4
ag20
aS'.'
ag14
ag20
ag8
ag24
ag2
ag23
aS'.'
ag18
ag22
ag11
ag24
ag20
ag15
aS'.'
ag11
ag5
ag19
ag24
ag14
ag20
aS'.'
ag18
ag23
ag18
ag24
ag15
ag22
aS'.'
ag11
ag24
ag5
ag4
ag21
ag14
aS'.'
ag11
ag9
ag15
ag24
ag4
ag20
aS'.'
ag15
ag24
ag6
ag20
ag22
ag11
aS'.'
ag14
ag24
ag18
ag23
ag20
ag18
aS'.'
ag15
ag24
ag23
ag10
ag22
ag2
aS'.'
ag15
ag16
ag8
ag24
ag9
ag19
aS'.'
ag10
ag24
ag8
ag20
ag5
ag10
aS'.'
ag8
ag24
ag5
ag6
ag9
ag18
aS'.'
ag14
ag20
ag11
ag24
ag21
ag11
aS'.'
ag18
ag24
ag23
ag8
ag23
ag18
aS'.'
ag10
ag20
ag15
ag24
ag2
ag23
aS'.'
ag10
ag24
ag5
ag14
ag5
ag14
aS'.'
ag14
ag9
ag14
ag24
ag6
ag20
aS'.'
ag14
ag9
ag15
ag24
ag22
ag6
aS'.'
ag18
ag24
ag19
ag23
ag23
ag10
aS'.'
ag8
ag24
ag14
ag20
ag21
ag8
aS'.'
ag6
ag5
ag18
ag24
ag16
ag14
aS'.'
ag2
ag24
ag16
ag18
ag16
ag10
aS'.'
ag14
ag5
ag8
ag24
ag21
ag2
aS'.'
ag15
ag22
ag11
ag24
ag9
ag15
aS'.'
ag18
ag24
ag2
ag22
ag23
ag6
aS'.'
ag4
ag5
ag11
ag24
ag20
ag18
aS'.'
ag19
ag24
ag19
ag23
ag23
ag18
aS'.'
ag2
ag24
ag19
ag23
ag22
ag4
aS'.'
ag15
ag24
ag10
ag21
ag22
ag6
aS'.'
ag2
ag24
ag11
ag21
ag13
ag8
aS'.'
ag2
ag23
ag11
ag24
ag21
ag6
aS'.'
ag6
ag5
ag2
ag24
ag23
ag4
aS'.'
ag4
ag21
ag15
ag24
ag22
ag10
aS'.'
ag2
ag13
ag18
ag24
ag10
ag20
aS'.'
ag8
ag24
ag9
ag10
ag5
ag19
aS'.'
ag18
ag16
ag19
ag24
ag4
ag21
aS'.'
ag18
ag24
ag16
ag19
ag16
ag14
aS'.'
ag8
ag24
ag20
ag15
ag20
ag14
aS'.'
ag19
ag22
ag14
ag24
ag6
ag21
aS'.'
ag15
ag16
ag18
ag24
ag19
ag23
aS'.'
ag11
ag24
ag5
ag14
ag9
ag8
aS'.'
ag8
ag24
ag21
ag8
ag5
ag11
aS'.'
ag15
ag16
ag14
ag24
ag14
ag21
aS'.'
ag2
ag24
ag15
ag22
ag16
ag8
aS'.'
ag14
ag24
ag20
ag2
ag9
ag10
aS'.'
ag8
ag24
ag5
ag2
ag5
ag10
aS'.'
ag10
ag20
ag11
ag24
ag20
ag18
aS'.'
ag11
ag24
ag21
ag8
ag21
ag11
aS'.'
ag8
ag20
ag15
ag24
ag13
ag19
aS'.'
ag4
ag5
ag8
ag24
ag5
ag14
aS'.'
ag15
ag24
ag23
ag18
ag13
ag11
aS'.'
ag15
ag23
ag14
ag24
ag21
ag4
aS'.'
ag10
ag24
ag9
ag18
ag5
ag14
aS'.'
ag2
ag24
ag14
ag21
ag22
ag11
aS'.'
ag15
ag24
ag16
ag15
ag23
ag4
aS'.'
ag2
ag16
ag2
ag24
ag23
ag10
aS'.'
ag19
ag16
ag8
ag24
ag11
ag21
aS'.'
ag11
ag24
ag6
ag20
ag5
ag15
aS'.'
ag14
ag24
ag20
ag10
ag21
ag6
aS'.'
ag2
ag24
ag13
ag18
ag13
ag10
aS'.'
ag2
ag24
ag16
ag11
ag16
ag19
aS'.'
ag4
ag9
ag18
ag24
ag22
ag15
aS'.'
ag10
ag5
ag19
ag24
ag13
ag18
aS'.'
ag15
ag23
ag10
ag24
ag21
ag10
aS'.'
ag15
ag24
ag10
ag21
ag23
ag8
aS'.'
ag10
ag24
ag9
ag10
ag21
ag14
aS'.'
ag2
ag23
ag19
ag24
ag13
ag4
aS'.'
ag18
ag23
ag18
ag24
ag2
ag22
aS'.'
ag4
ag21
ag2
ag24
ag23
ag19
aS'.'
ag15
ag16
ag8
ag24
ag21
ag8
aS'.'
ag19
ag24
ag13
ag6
ag16
ag14
aS'.'
ag10
ag21
ag19
ag24
ag15
ag22
aS'.'
ag15
ag24
ag10
ag20
ag22
ag6
aS'.'
ag8
ag9
ag14
ag24
ag5
ag18
aS'.'
ag14
ag24
ag9
ag8
ag21
ag2
aS'.'
ag6
ag9
ag14
ag24
ag15
ag23
aS'.'
ag15
ag13
ag19
ag24
ag14
ag21
aS'.'
ag2
ag22
ag14
ag24
ag9
ag6
aS'.'
ag15
ag24
ag23
ag10
ag23
ag19
aS'.'
ag18
ag24
ag22
ag11
ag16
ag4
aS'.'
ag10
ag20
ag18
ag24
ag6
ag21
aS'.'
ag14
ag20
ag2
ag24
ag13
ag19
aS'.'
ag6
ag9
ag14
ag24
ag21
ag10
aS'.'
ag15
ag24
ag23
ag19
ag16
ag10
aS'.'
ag11
ag9
ag14
ag24
ag5
ag19
aS'.'
ag8
ag24
ag21
ag4
ag9
ag18
aS'.'
ag6
ag20
ag19
ag24
ag22
ag15
aS'.'
ag19
ag13
ag15
ag24
ag11
ag20
aS'.'
ag2
ag16
ag19
ag24
ag23
ag6
aS'.'
ag11
ag24
ag9
ag11
ag5
ag18
aS'.'
ag4
ag21
ag2
ag24
ag16
ag4
aS'.'
ag2
ag16
ag11
ag24
ag20
ag4
aS'.'
ag14
ag5
ag11
ag24
ag5
ag4
aS'.'
ag8
ag24
ag20
ag14
ag9
ag15
aS'.'
ag10
ag24
ag9
ag19
ag21
ag18
aS'.'
ag10
ag24
ag21
ag11
ag5
ag11
aS'.'
ag6
ag21
ag10
ag24
ag9
ag2
aS'.'
ag11
ag24
ag5
ag6
ag9
ag14
aS'.'
ag14
ag24
ag15
ag22
ag9
ag6
aS'.'
ag15
ag13
ag11
ag24
ag21
ag11
aS'.'
ag18
ag23
ag11
ag24
ag18
ag22
aS'.'
ag2
ag24
ag22
ag18
ag13
ag10
aS'.'
ag14
ag24
ag21
ag15
ag9
ag2
aS'.'
ag15
ag24
ag11
ag20
ag16
ag14
aS'.'
ag15
ag13
ag18
ag24
ag6
ag20
aS'.'
ag11
ag24
ag21
ag6
ag20
ag18
aS'.'
ag11
ag24
ag5
ag15
ag9
ag18
aS'.'
ag10
ag24
ag5
ag6
ag9
ag14
aS'.'
ag19
ag24
ag8
ag21
ag22
ag11
aS'.'
ag19
ag24
ag4
ag21
ag23
ag10
aS'.'
ag18
ag22
ag2
ag24
ag11
ag20
aS'.'
ag15
ag24
ag23
ag10
ag23
ag15
aS'.'
ag2
ag16
ag8
ag24
ag10
ag20
aS'.'
ag14
ag5
ag15
ag24
ag22
ag11
aS'.'
ag19
ag13
ag15
ag24
ag22
ag11
aS'.'
ag15
ag24
ag19
ag23
ag22
ag8
aS'.'
ag10
ag24
ag18
ag23
ag20
ag14
aS'.'
ag11
ag24
ag9
ag15
ag20
ag15
aS'.'
ag2
ag24
ag22
ag14
ag23
ag15
aS'.'
ag8
ag24
ag21
ag19
ag9
ag19
aS'.'
ag19
ag22
ag10
ag24
ag9
ag4
aS'.'
ag2
ag24
ag14
ag21
ag23
ag2
aS'.'
ag15
ag13
ag18
ag24
ag6
ag21
aS'.'
ag8
ag24
ag14
ag21
ag21
ag8
aS'.'
ag19
ag24
ag23
ag11
ag13
ag6
aS'.'
ag10
ag24
ag9
ag19
ag21
ag2
aS'.'
ag10
ag9
ag10
ag24
ag9
ag6
aS'.'
ag11
ag24
ag11
ag20
ag9
ag11
aS'.'
ag10
ag24
ag9
ag10
ag9
ag8
aS'.'
ag10
ag24
ag21
ag11
ag9
ag4
aS'.'
ag19
ag23
ag18
ag24
ag2
ag22
aS'.'
ag15
ag22
ag11
ag24
ag21
ag14
aS'.'
ag19
ag24
ag22
ag10
ag13
ag4
aS'.'
ag19
ag24
ag15
ag22
ag16
ag8
aS'.'
ag14
ag21
ag15
ag24
ag6
ag20
aS'.'
ag6
ag9
ag19
ag24
ag6
ag21
aS'.'
ag18
ag24
ag16
ag15
ag23
ag2
aS'.'
ag8
ag21
ag14
ag24
ag20
ag15
aS'.'
ag14
ag9
ag19
ag24
ag13
ag19
aS'.'
ag10
ag24
ag20
ag15
ag21
ag19
aS'.'
ag2
ag22
ag14
ag24
ag4
ag21
aS'.'
ag10
ag24
ag5
ag4
ag20
ag14
aS'.'
ag18
ag23
ag2
ag24
ag11
ag20
aS'.'
ag8
ag24
ag20
ag6
ag20
ag11
aS'.'
ag18
ag22
ag2
ag24
ag18
ag23
aS'.'
ag8
ag24
ag21
ag11
ag20
ag19
aS'.'
ag19
ag24
ag18
ag23
ag16
ag8
aS'.'
ag6
ag5
ag11
ag24
ag21
ag18
aS'.'
ag19
ag24
ag14
ag21
ag23
ag11
aS'.'
ag18
ag24
ag2
ag22
ag22
ag8
aS'.'
ag2
ag24
ag13
ag10
ag16
ag15
aS'.'
ag14
ag20
ag8
ag24
ag9
ag15
aS'.'
ag18
ag24
ag14
ag21
ag22
ag15
aS'.'
ag10
ag24
ag20
ag14
ag20
ag10
aS'.'
ag18
ag22
ag11
ag24
ag21
ag4
aS'.'
ag14
ag24
ag10
ag21
ag5
ag10
aS'.'
ag8
ag5
ag14
ag24
ag15
ag22
aS'.'
ag18
ag24
ag23
ag18
ag13
ag14
aS'.'
ag10
ag5
ag14
ag24
ag20
ag15
aS'.'
ag2
ag13
ag10
ag24
ag21
ag8
aS'.'
ag11
ag24
ag4
ag21
ag9
ag15
aS'.'
ag19
ag16
ag10
ag24
ag18
ag22
aS'.'
ag15
ag24
ag18
ag22
ag13
ag6
aS'.'
ag19
ag16
ag15
ag24
ag22
ag8
aS'.'
ag2
ag23
ag15
ag24
ag22
ag6
aS'.'
ag10
ag24
ag21
ag6
ag9
ag19
aS'.'
ag15
ag13
ag8
ag24
ag20
ag8
aS'.'
ag11
ag9
ag10
ag24
ag5
ag18
aS'.'
ag19
ag24
ag22
ag11
ag22
ag15
aS'.'
ag10
ag20
ag10
ag24
ag5
ag6
aS'.'
ag19
ag24
ag4
ag20
ag16
ag15
aS'.'
ag10
ag24
ag9
ag18
ag9
ag4
aS'.'
ag14
ag24
ag5
ag11
ag9
ag4
aS'.'
ag18
ag24
ag4
ag21
ag13
ag18
aS'.'
ag14
ag9
ag18
ag24
ag16
ag10
aS'.'
ag10
ag24
ag9
ag4
ag5
ag11
aS'.'
ag15
ag13
ag11
ag24
ag2
ag22
aS'.'
ag2
ag23
ag8
ag24
ag9
ag10
aS'.'
ag4
ag9
ag2
ag24
ag16
ag11
aS'.'
ag14
ag5
ag11
ag24
ag21
ag4
aS'.'
ag10
ag24
ag9
ag11
ag9
ag15
aS'.'
ag19
ag16
ag14
ag24
ag2
ag23
aS'.'
ag14
ag20
ag2
ag24
ag19
ag22
aS'.'
ag15
ag16
ag10
ag24
ag5
ag4
aS'.'
ag6
ag20
ag18
ag24
ag8
ag20
aS'.'
ag18
ag24
ag23
ag2
ag22
ag11
aS'.'
ag19
ag24
ag10
ag20
ag22
ag14
aS'.'
ag6
ag21
ag19
ag24
ag18
ag22
aS'.'
ag15
ag24
ag16
ag18
ag23
ag6
aS'.'
ag15
ag23
ag10
ag24
ag21
ag19
aS'.'
ag6
ag21
ag18
ag24
ag6
ag20
aS'.'
ag2
ag16
ag15
ag24
ag4
ag20
aS'.'
ag18
ag22
ag14
ag24
ag20
ag8
aS'.'
ag2
ag24
ag22
ag4
ag23
ag19
aS'.'
ag15
ag23
ag14
ag24
ag9
ag15
aS'.'
ag4
ag20
ag14
ag24
ag4
ag21
aS'.'
ag11
ag24
ag11
ag21
ag9
ag11
aS'.'
ag19
ag13
ag10
ag24
ag20
ag10
aS'.'
ag8
ag20
ag18
ag24
ag16
ag2
aS'.'
ag14
ag24
ag5
ag10
ag20
ag2
aS'.'
ag15
ag24
ag22
ag14
ag16
ag11
aS'.'
ag15
ag24
ag22
ag4
ag23
ag19
aS'.'
ag8
ag9
ag2
ag24
ag22
ag19
aS'.'
ag10
ag21
ag2
ag24
ag2
ag23
aS'.'
ag10
ag24
ag14
ag21
ag21
ag4
aS'.'
ag18
ag16
ag19
ag24
ag16
ag8
aS'.'
ag11
ag24
ag20
ag6
ag20
ag14
aS'.'
ag2
ag24
ag15
ag22
ag23
ag18
aS'.'
ag6
ag9
ag14
ag24
ag5
ag10
aS'.'
ag11
ag24
ag9
ag6
ag20
ag15
aS'.'
ag6
ag5
ag10
ag24
ag20
ag18
aS'.'
ag10
ag24
ag20
ag10
ag9
ag4
aS'.'
ag11
ag21
ag15
ag24
ag13
ag6
aS'.'
ag2
ag22
ag11
ag24
ag11
ag20
aS'.'
ag14
ag20
ag19
ag24
ag16
ag10
aS'.'
ag14
ag24
ag20
ag8
ag21
ag19
aS'.'
ag11
ag9
ag14
ag24
ag20
ag2
aS'.'
ag18
ag22
ag18
ag24
ag16
ag19
aS'.'
ag8
ag24
ag5
ag10
ag5
ag2
aS'.'
ag19
ag16
ag11
ag24
ag21
ag18
aS'.'
ag10
ag24
ag14
ag21
ag5
ag6
aS'.'
ag19
ag24
ag15
ag22
ag23
ag18
aS'.'
ag11
ag24
ag5
ag10
ag21
ag19
aS'.'
ag14
ag20
ag11
ag24
ag11
ag20
aS'.'
ag2
ag24
ag19
ag23
ag22
ag6
aS'.'
ag10
ag9
ag11
ag24
ag20
ag2
aS'.'
ag10
ag20
ag11
ag24
ag5
ag2
aS'.'
ag10
ag21
ag15
ag24
ag13
ag14
aS'.'
ag14
ag9
ag10
ag24
ag21
ag15
aS'.'
ag18
ag24
ag13
ag8
ag22
ag2
aS'.'
ag2
ag24
ag22
ag15
ag13
ag15
aS'.'
ag15
ag13
ag15
ag24
ag23
ag2
aS'.'
ag14
ag24
ag9
ag18
ag5
ag4
aS'.'
ag4
ag20
ag15
ag24
ag8
ag20
aS'.'
ag11
ag24
ag20
ag18
ag9
ag4
aS'.'
ag19
ag24
ag16
ag8
ag16
ag18
aS'.'
ag11
ag24
ag21
ag14
ag21
ag8
aS'.'
ag4
ag5
ag14
ag24
ag8
ag20
aS'.'
ag19
ag24
ag22
ag10
ag16
ag14
aS'.'
ag11
ag9
ag8
ag24
ag5
ag11
aS'.'
ag19
ag16
ag8
ag24
ag9
ag10
aS'.'
ag18
ag24
ag4
ag21
ag23
ag10
aS'.'
ag11
ag5
ag8
ag24
ag2
ag22
aS'.'
ag10
ag24
ag20
ag14
ag5
ag10
aS'.'
ag10
ag20
ag2
ag24
ag23
ag11
aS'.'
ag15
ag24
ag22
ag4
ag13
ag19
aS'.'
ag10
ag5
ag8
ag24
ag21
ag11
aS'.'
ag8
ag24
ag9
ag11
ag5
ag15
aS'.'
ag8
ag9
ag19
ag24
ag6
ag20
aS'.'
ag19
ag24
ag8
ag21
ag22
ag18
aS'.'
ag6
ag5
ag2
ag24
ag16
ag15
aS'.'
ag4
ag21
ag10
ag24
ag5
ag10
aS'.'
ag18
ag24
ag13
ag2
ag22
ag15
aS'.'
ag11
ag24
ag20
ag19
ag21
ag4
aS'.'
ag10
ag24
ag9
ag2
ag21
ag6
aS'.'
ag19
ag22
ag10
ag24
ag4
ag20
aS'.'
ag14
ag5
ag10
ag24
ag20
ag10
aS'.'
ag15
ag24
ag13
ag2
ag13
ag11
aS'.'
ag8
ag24
ag9
ag8
ag9
ag15
aS'.'
ag14
ag24
ag5
ag11
ag20
ag18
aS'.'
ag8
ag24
ag18
ag22
ag9
ag10
aS'.'
ag4
ag9
ag19
ag24
ag16
ag14
aS'.'
ag2
ag24
ag23
ag19
ag23
ag4
aS'.'
ag11
ag20
ag15
ag24
ag13
ag15
aS'.'
ag10
ag20
ag10
ag24
ag21
ag4
aS'.'
ag6
ag5
ag18
ag24
ag22
ag10
aS'.'
ag19
ag24
ag13
ag11
ag16
ag18
aS'.'
ag15
ag24
ag8
ag21
ag23
ag4
aS'.'
ag15
ag24
ag16
ag2
ag23
ag19
aS'.'
ag2
ag24
ag23
ag2
ag22
ag19
aS'.'
ag8
ag20
ag18
ag24
ag13
ag10
aS'.'
ag14
ag24
ag5
ag15
ag5
ag11
aS'.'
ag6
ag21
ag11
ag24
ag21
ag8
aS'.'
ag18
ag23
ag10
ag24
ag11
ag20
aS'.'
ag6
ag20
ag8
ag24
ag21
ag19
aS'.'
ag15
ag13
ag2
ag24
ag13
ag18
aS'.'
ag2
ag24
ag10
ag20
ag22
ag4
aS'.'
ag10
ag9
ag18
ag24
ag15
ag23
aS'.'
ag2
ag16
ag15
ag24
ag13
ag6
aS'.'
ag10
ag24
ag8
ag20
ag20
ag19
aS'.'
ag10
ag20
ag8
ag24
ag9
ag11
aS'.'
ag8
ag21
ag15
ag24
ag16
ag18
aS'.'
ag2
ag22
ag8
ag24
ag20
ag15
aS'.'
ag14
ag20
ag14
ag24
ag5
ag6
aS'.'
ag2
ag13
ag2
ag24
ag13
ag11
aS'.'
ag8
ag24
ag20
ag4
ag20
ag11
aS'.'
ag19
ag24
ag4
ag20
ag16
ag8
aS'.'
ag10
ag5
ag10
ag24
ag21
ag2
aS'.'
ag19
ag24
ag10
ag21
ag23
ag4
aS'.'
ag19
ag24
ag16
ag14
ag22
ag10
aS'.'
ag18
ag24
ag13
ag2
ag16
ag10
aS'.'
ag2
ag24
ag16
ag15
ag13
ag15
aS'.'
ag15
ag24
ag22
ag19
ag16
ag8
aS'.'
ag19
ag24
ag11
ag20
ag23
ag11
aS'.'
ag4
ag21
ag10
ag24
ag19
ag23
aS'.'
ag11
ag24
ag6
ag20
ag20
ag2
aS'.'
ag15
ag24
ag22
ag18
ag16
ag6
aS'.'
ag18
ag16
ag2
ag24
ag14
ag20
aS'.'
ag10
ag5
ag15
ag24
ag23
ag11
aS'.'
ag4
ag21
ag8
ag24
ag20
ag15
aS'.'
ag8
ag24
ag20
ag4
ag21
ag8
aS'.'
ag10
ag5
ag8
ag24
ag5
ag6
aS'.'
ag11
ag20
ag8
ag24
ag9
ag11
aS'.'
ag19
ag24
ag22
ag14
ag23
ag6
aS'.'
ag6
ag9
ag15
ag24
ag13
ag8
aS'.'
ag8
ag21
ag18
ag24
ag16
ag6
aS'.'
ag19
ag24
ag23
ag18
ag16
ag18
aS'.'
ag2
ag24
ag16
ag2
ag16
ag19
aS'.'
ag18
ag24
ag10
ag21
ag23
ag4
aS'.'
ag15
ag24
ag13
ag2
ag16
ag2
aS'.'
ag19
ag24
ag23
ag14
ag16
ag19
aS'.'
ag15
ag24
ag16
ag15
ag23
ag8
aS'.'
ag11
ag20
ag19
ag24
ag22
ag14
aS'.'
ag8
ag9
ag19
ag24
ag23
ag15
aS'.'
ag18
ag13
ag11
ag24
ag10
ag20
aS'.'
ag19
ag24
ag22
ag8
ag16
ag4
aS'.'
ag10
ag5
ag8
ag24
ag21
ag6
aS'.'
ag18
ag24
ag8
ag21
ag22
ag19
aS'.'
ag14
ag21
ag19
ag24
ag22
ag18
aS'.'
ag2
ag24
ag8
ag20
ag23
ag15
aS'.'
ag6
ag21
ag15
ag24
ag16
ag10
aS'.'
ag6
ag21
ag15
ag24
ag13
ag10
aS'.'
ag8
ag9
ag14
ag24
ag21
ag2
aS'.'
ag8
ag24
ag9
ag2
ag21
ag8
aS'.'
ag8
ag24
ag5
ag10
ag21
ag11
aS'.'
ag19
ag24
ag19
ag22
ag13
ag19
aS'.'
ag19
ag23
ag14
ag24
ag19
ag22
aS'.'
ag6
ag21
ag2
ag24
ag23
ag11
aS'.'
ag14
ag24
ag21
ag19
ag21
ag19
aS'.'
ag8
ag24
ag21
ag2
ag5
ag15
aS'.'
ag14
ag24
ag9
ag11
ag5
ag4
aS'.'
ag8
ag21
ag11
ag24
ag21
ag10
aS'.'
ag15
ag22
ag11
ag24
ag20
ag19
aS'.'
ag8
ag24
ag5
ag4
ag21
ag14
aS'.'
ag19
ag24
ag23
ag14
ag16
ag10
aS'.'
ag19
ag24
ag13
ag4
ag23
ag19
aS'.'
ag15
ag24
ag14
ag20
ag16
ag8
aS'.'
ag14
ag24
ag20
ag14
ag21
ag18
aS'.'
ag19
ag24
ag22
ag19
ag22
ag8
aS'.'
ag2
ag24
ag16
ag6
ag23
ag6
aS'.'
ag8
ag24
ag15
ag23
ag9
ag8
aS'.'
ag18
ag24
ag4
ag21
ag16
ag14
aS'.'
ag6
ag21
ag2
ag24
ag22
ag10
aS'.'
ag18
ag24
ag22
ag8
ag16
ag11
aS'.'
ag10
ag21
ag10
ag24
ag9
ag14
aS'.'
ag8
ag5
ag2
ag24
ag16
ag19
aS'.'
ag4
ag21
ag14
ag24
ag2
ag22
aS'.'
ag18
ag13
ag8
ag24
ag10
ag21
aS'.'
ag2
ag24
ag23
ag6
ag23
ag4
aS'.'
ag18
ag24
ag23
ag11
ag16
ag8
aS'.'
ag8
ag21
ag11
ag24
ag21
ag2
aS'.'
ag15
ag22
ag11
ag24
ag20
ag8
aS'.'
ag6
ag5
ag14
ag24
ag21
ag2
aS'.'
ag14
ag24
ag9
ag15
ag9
ag4
aS'.'
ag10
ag20
ag18
ag24
ag22
ag19
aS'.'
ag10
ag20
ag11
ag24
ag21
ag8
aS'.'
ag15
ag24
ag6
ag21
ag23
ag19
aS'.'
ag14
ag24
ag20
ag19
ag9
ag6
aS'.'
ag14
ag24
ag20
ag4
ag20
ag10
aS'.'
ag15
ag24
ag23
ag8
ag22
ag18
aS'.'
ag19
ag24
ag13
ag2
ag22
ag18
aS'.'
ag11
ag24
ag20
ag8
ag21
ag11
aS'.'
ag11
ag5
ag2
ag24
ag13
ag4
aS'.'
ag18
ag16
ag2
ag24
ag16
ag8
aS'.'
ag2
ag22
ag18
ag24
ag23
ag19
aS'.'
ag19
ag13
ag8
ag24
ag9
ag8
aS'.'
ag8
ag24
ag9
ag11
ag20
ag15
aS'.'
ag18
ag24
ag22
ag8
ag23
ag8
aS'.'
ag6
ag20
ag2
ag24
ag13
ag8
aS'.'
ag10
ag9
ag18
ag24
ag11
ag20
aS'.'
ag11
ag9
ag15
ag24
ag13
ag8
aS'.'
ag15
ag23
ag19
ag24
ag13
ag4
aS'.'
ag11
ag24
ag9
ag4
ag21
ag19
aS'.'
ag18
ag16
ag14
ag24
ag9
ag4
aS'.'
ag2
ag22
ag8
ag24
ag5
ag11
aS'.'
ag6
ag20
ag11
ag24
ag21
ag8
aS'.'
ag2
ag24
ag8
ag20
ag22
ag2
aS'.'
ag10
ag24
ag21
ag4
ag5
ag6
aS'.'
ag11
ag24
ag21
ag8
ag9
ag2
aS'.'
ag15
ag24
ag16
ag19
ag22
ag10
aS'.'
ag11
ag24
ag5
ag11
ag20
ag11
aS'.'
ag14
ag9
ag2
ag24
ag13
ag14
aS'.'
ag11
ag24
ag15
ag22
ag20
ag10
aS'.'
ag19
ag24
ag4
ag21
ag22
ag19
aS'.'
ag15
ag24
ag14
ag20
ag23
ag19
aS'.'
ag10
ag24
ag20
ag11
ag5
ag15
aS'.'
ag19
ag23
ag10
ag24
ag4
ag21
aS'.'
ag18
ag16
ag15
ag24
ag16
ag4
aS'.'
ag8
ag24
ag20
ag14
ag21
ag6
aS'.'
ag4
ag9
ag14
ag24
ag20
ag10
aS'.'
ag15
ag24
ag13
ag2
ag16
ag15
aS'.'
ag18
ag24
ag15
ag22
ag13
ag10
aS'.'
ag8
ag24
ag9
ag8
ag21
ag11
aS'.'
ag18
ag24
ag19
ag23
ag23
ag11
aS'.'
ag10
ag9
ag18
ag24
ag22
ag8
aS'.'
ag10
ag24
ag9
ag11
ag9
ag6
aS'.'
ag10
ag24
ag20
ag18
ag5
ag11
aS'.'
ag15
ag23
ag2
ag24
ag22
ag2
aS'.'
ag15
ag13
ag8
ag24
ag14
ag21
aS'.'
ag8
ag9
ag8
ag24
ag9
ag18
aS'.'
ag15
ag23
ag2
ag24
ag23
ag2
aS'.'
ag10
ag5
ag19
ag24
ag23
ag10
aS'.'
ag14
ag5
ag10
ag24
ag20
ag6
aS'.'
ag15
ag22
ag19
ag24
ag13
ag6
aS'.'
ag10
ag21
ag8
ag24
ag9
ag18
aS'.'
ag19
ag16
ag19
ag24
ag22
ag4
aS'.'
ag19
ag24
ag16
ag10
ag16
ag19
aS'.'
ag6
ag5
ag11
ag24
ag20
ag14
aS'.'
ag2
ag24
ag13
ag18
ag22
ag6
aS'.'
ag14
ag24
ag20
ag18
ag21
ag14
aS'.'
ag4
ag9
ag10
ag24
ag21
ag18
aS'.'
ag19
ag24
ag16
ag15
ag22
ag4
aS'.'
ag18
ag22
ag10
ag24
ag14
ag21
aS'.'
ag2
ag24
ag15
ag22
ag22
ag18
aS'.'
ag10
ag24
ag5
ag8
ag5
ag8
aS'.'
ag14
ag24
ag20
ag18
ag21
ag19
aS'.'
ag18
ag13
ag19
ag24
ag22
ag11
aS'.'
ag15
ag24
ag13
ag19
ag22
ag19
aS'.'
ag10
ag20
ag19
ag24
ag13
ag2
aS'.'
ag11
ag24
ag9
ag11
ag9
ag2
aS'.'
ag19
ag24
ag4
ag20
ag22
ag2
aS'.'
ag14
ag24
ag20
ag4
ag9
ag11
aS'.'
ag10
ag5
ag11
ag24
ag9
ag4
aS'.'
ag18
ag13
ag15
ag24
ag23
ag19
aS'.'
ag19
ag24
ag15
ag22
ag22
ag8
aS'.'
ag10
ag5
ag11
ag24
ag20
ag14
aS'.'
ag11
ag9
ag10
ag24
ag9
ag4
aS'.'
ag2
ag24
ag13
ag15
ag13
ag15
aS'.'
ag19
ag24
ag23
ag14
ag16
ag15
aS'.'
ag14
ag24
ag6
ag20
ag5
ag2
aS'.'
ag19
ag24
ag16
ag18
ag16
ag8
aS'.'
ag11
ag24
ag19
ag22
ag9
ag15
aS'.'
ag2
ag24
ag11
ag20
ag16
ag11
aS'.'
ag11
ag24
ag20
ag10
ag9
ag15
aS'.'
ag4
ag5
ag18
ag24
ag23
ag11
aS'.'
ag15
ag24
ag13
ag19
ag22
ag6
aS'.'
ag14
ag20
ag11
ag24
ag21
ag4
aS'.'
ag18
ag24
ag23
ag4
ag13
ag14
aS'.'
ag15
ag23
ag15
ag24
ag23
ag15
aS'.'
ag18
ag24
ag23
ag2
ag13
ag14
aS'.'
ag2
ag24
ag16
ag6
ag16
ag19
aS'.'
ag10
ag20
ag10
ag24
ag9
ag4
aS'.'
ag4
ag9
ag15
ag24
ag16
ag14
aS'.'
ag15
ag16
ag18
ag24
ag13
ag4
aS'.'
ag6
ag5
ag2
ag24
ag19
ag23
aS'.'
ag10
ag20
ag2
ag24
ag16
ag2
aS'.'
ag18
ag24
ag14
ag21
ag13
ag14
aS'.'
ag14
ag21
ag11
ag24
ag21
ag4
aS'.'
ag10
ag24
ag14
ag21
ag20
ag14
aS'.'
ag8
ag20
ag10
ag24
ag10
ag20
aS'.'
ag19
ag24
ag22
ag4
ag22
ag18
aS'.'
ag15
ag24
ag23
ag4
ag23
ag10
aS'.'
ag6
ag21
ag8
ag24
ag21
ag6
aS'.'
ag8
ag9
ag15
ag24
ag23
ag19
aS'.'
ag10
ag24
ag20
ag8
ag20
ag4
aS'.'
ag2
ag24
ag23
ag19
ag13
ag18
aS'.'
ag8
ag5
ag18
ag24
ag23
ag10
aS'.'
ag15
ag24
ag14
ag20
ag22
ag18
aS'.'
ag2
ag24
ag4
ag20
ag23
ag11
aS'.'
ag8
ag20
ag11
ag24
ag20
ag2
aS'.'
ag4
ag9
ag18
ag24
ag16
ag6
aS'.'
ag15
ag16
ag18
ag24
ag23
ag2
aS'.'
ag8
ag20
ag8
ag24
ag6
ag21
aS'.'
ag19
ag24
ag2
ag22
ag22
ag2
aS'.'
ag8
ag24
ag11
ag20
ag20
ag11
aS'.'
ag19
ag24
ag13
ag6
ag16
ag10
aS'.'
ag2
ag16
ag2
ag24
ag16
ag11
aS'.'
ag2
ag24
ag16
ag10
ag23
ag19
aS'.'
ag10
ag20
ag2
ag24
ag16
ag8
aS'.'
ag10
ag24
ag21
ag15
ag21
ag6
aS'.'
ag4
ag20
ag10
ag24
ag18
ag22
aS'.'
ag19
ag16
ag14
ag24
ag5
ag11
aS'.'
ag11
ag20
ag11
ag24
ag9
ag2
aS'.'
ag2
ag23
ag15
ag24
ag10
ag21
aS'.'
ag2
ag24
ag22
ag14
ag23
ag6
aS'.'
ag2
ag13
ag11
ag24
ag15
ag22
aS'.'
ag15
ag23
ag8
ag24
ag5
ag4
aS'.'
ag4
ag20
ag10
ag24
ag21
ag14
aS'.'
ag4
ag5
ag8
ag24
ag21
ag14
aS'.'
ag11
ag24
ag21
ag11
ag5
ag11
aS'.'
ag2
ag24
ag13
ag11
ag13
ag2
aS'.'
ag18
ag22
ag8
ag24
ag2
ag22
aS'.'
ag15
ag16
ag19
ag24
ag14
ag20
aS'.'
ag19
ag23
ag8
ag24
ag5
ag4
aS'.'
ag18
ag16
ag8
ag24
ag14
ag21
aS'.'
ag15
ag22
ag19
ag24
ag8
ag20
aS'.'
ag18
ag24
ag16
ag18
ag22
ag14
aS'.'
ag11
ag24
ag5
ag11
ag5
ag18
aS'.'
ag10
ag24
ag20
ag14
ag21
ag2
aS'.'
ag11
ag21
ag18
ag24
ag16
ag19
aS'.'
ag4
ag20
ag11
ag24
ag20
ag10
aS'.'
ag19
ag22
ag2
ag24
ag23
ag10
aS'.'
ag6
ag21
ag15
ag24
ag6
ag20
aS'.'
ag8
ag24
ag14
ag21
ag5
ag6
aS'.'
ag10
ag5
ag2
ag24
ag15
ag22
aS'.'
ag19
ag24
ag22
ag15
ag23
ag6
aS'.'
ag8
ag24
ag21
ag15
ag9
ag11
aS'.'
ag11
ag21
ag18
ag24
ag23
ag10
aS'.'
ag4
ag21
ag15
ag24
ag22
ag2
aS'.'
ag11
ag24
ag18
ag22
ag21
ag6
aS'.'
ag11
ag24
ag10
ag21
ag21
ag2
aS'.'
ag15
ag24
ag22
ag2
ag13
ag8
aS'.'
ag8
ag5
ag14
ag24
ag10
ag20
aS'.'
ag14
ag24
ag5
ag6
ag9
ag4
aS'.'
ag10
ag24
ag19
ag23
ag9
ag14
aS'.'
ag4
ag5
ag10
ag24
ag9
ag10
aS'.'
ag2
ag24
ag13
ag10
ag23
ag10
aS'.'
ag2
ag24
ag4
ag20
ag22
ag11
aS'.'
ag15
ag24
ag19
ag23
ag16
ag4
aS'.'
ag18
ag22
ag11
ag24
ag8
ag21
aS'.'
ag10
ag24
ag15
ag23
ag5
ag4
aS'.'
ag2
ag24
ag2
ag22
ag23
ag18
aS'.'
ag8
ag24
ag5
ag8
ag5
ag18
aS'.'
ag8
ag9
ag10
ag24
ag20
ag2
aS'.'
ag18
ag24
ag23
ag14
ag13
ag4
aS'.'
ag4
ag9
ag10
ag24
ag20
ag18
aS'.'
ag19
ag24
ag22
ag8
ag22
ag10
aS'.'
ag14
ag21
ag19
ag24
ag11
ag20
aS'.'
ag14
ag24
ag9
ag15
ag21
ag6
aS'.'
ag6
ag21
ag14
ag24
ag20
ag11
aS'.'
ag2
ag24
ag13
ag10
ag16
ag14
aS'.'
ag10
ag21
ag19
ag24
ag8
ag21
aS'.'
ag11
ag20
ag8
ag24
ag8
ag21
aS'.'
ag8
ag24
ag5
ag2
ag5
ag15
aS'.'
ag18
ag13
ag2
ag24
ag2
ag23
aS'.'
ag19
ag24
ag23
ag10
ag13
ag14
aS'.'
ag15
ag13
ag14
ag24
ag11
ag21
aS'.'
ag15
ag24
ag13
ag15
ag22
ag6
aS'.'
ag11
ag5
ag2
ag24
ag15
ag23
aS'.'
ag18
ag23
ag8
ag24
ag20
ag8
aS'.'
ag4
ag20
ag18
ag24
ag18
ag23
aS'.'
ag18
ag24
ag13
ag4
ag16
ag18
aS'.'
ag19
ag24
ag13
ag14
ag16
ag2
aS'.'
ag19
ag13
ag15
ag24
ag22
ag18
aS'.'
ag2
ag22
ag14
ag24
ag9
ag6
aS'.'
ag10
ag9
ag8
ag24
ag21
ag8
aS'.'
ag19
ag22
ag2
ag24
ag15
ag22
aS'.'
ag8
ag24
ag20
ag19
ag21
ag8
aS'.'
ag15
ag24
ag16
ag4
ag13
ag19
aS'.'
ag8
ag20
ag8
ag24
ag21
ag6
aS'.'
ag4
ag5
ag15
ag24
ag23
ag15
aS'.'
ag6
ag5
ag18
ag24
ag23
ag14
aS'.'
ag15
ag24
ag22
ag2
ag23
ag8
aS'.'
ag2
ag24
ag16
ag10
ag16
ag11
aS'.'
ag11
ag24
ag8
ag21
ag20
ag8
aS'.'
ag11
ag21
ag8
ag24
ag5
ag11
aS'.'
ag14
ag24
ag19
ag23
ag5
ag2
aS'.'
ag14
ag9
ag2
ag24
ag22
ag6
aS'.'
ag19
ag23
ag8
ag24
ag11
ag21
aS'.'
ag19
ag24
ag22
ag15
ag16
ag11
aS'.'
ag18
ag16
ag18
ag24
ag23
ag14
aS'.'
ag18
ag24
ag2
ag22
ag23
ag15
aS'.'
ag8
ag9
ag8
ag24
ag5
ag11
aS'.'
ag15
ag24
ag22
ag6
ag16
ag15
aS'.'
ag15
ag16
ag18
ag24
ag16
ag4
aS'.'
ag19
ag24
ag16
ag8
ag23
ag2
aS'.'
ag18
ag24
ag22
ag2
ag16
ag8
aS'.'
ag19
ag24
ag23
ag14
ag23
ag19
aS'.'
ag19
ag16
ag11
ag24
ag5
ag6
aS'.'
ag18
ag13
ag18
ag24
ag13
ag2
aS'.'
ag10
ag9
ag11
ag24
ag20
ag10
aS'.'
ag14
ag24
ag20
ag14
ag20
ag19
aS'.'
ag4
ag5
ag8
ag24
ag5
ag4
aS'.'
ag14
ag9
ag10
ag24
ag20
ag8
aS'.'
ag11
ag24
ag5
ag18
ag21
ag14
aS'.'
ag19
ag23
ag10
ag24
ag20
ag11
aS'.'
ag15
ag24
ag13
ag8
ag16
ag2
aS'.'
ag18
ag24
ag16
ag6
ag16
ag19
aS'.'
ag18
ag24
ag19
ag22
ag23
ag10
aS'.'
ag10
ag24
ag5
ag4
ag9
ag10
aS'.'
ag19
ag24
ag15
ag23
ag22
ag18
aS'.'
ag2
ag23
ag2
ag24
ag23
ag10
aS'.'
ag18
ag22
ag14
ag24
ag20
ag19
aS'.'
ag2
ag24
ag23
ag14
ag23
ag18
aS'.'
ag4
ag20
ag14
ag24
ag21
ag8
aS'.'
ag11
ag24
ag21
ag4
ag21
ag2
aS'.'
ag19
ag24
ag19
ag22
ag16
ag2
aS'.'
ag15
ag22
ag10
ag24
ag9
ag10
aS'.'
ag10
ag24
ag5
ag14
ag21
ag10
aS'.'
ag18
ag13
ag10
ag24
ag20
ag10
aS'.'
ag15
ag24
ag13
ag15
ag22
ag19
aS'.'
ag2
ag24
ag16
ag19
ag16
ag10
aS'.'
ag18
ag24
ag19
ag22
ag13
ag4
aS'.'
ag4
ag21
ag14
ag24
ag19
ag23
aS'.'
ag15
ag13
ag8
ag24
ag14
ag20
aS'.'
ag19
ag13
ag2
ag24
ag23
ag18
aS'.'
ag19
ag22
ag15
ag24
ag15
ag22
aS'.'
ag4
ag5
ag14
ag24
ag20
ag14
aS'.'
ag2
ag24
ag16
ag18
ag23
ag19
aS'.'
ag8
ag20
ag11
ag24
ag5
ag2
aS'.'
ag4
ag21
ag8
ag24
ag19
ag22
aS'.'
ag6
ag9
ag11
ag24
ag5
ag19
aS'.'
ag6
ag5
ag2
ag24
ag10
ag21
aS'.'
ag11
ag21
ag10
ag24
ag9
ag18
aS'.'
ag19
ag24
ag15
ag23
ag22
ag8
aS'.'
ag2
ag13
ag8
ag24
ag14
ag21
aS'.'
ag11
ag24
ag5
ag18
ag20
ag18
aS'.'
ag10
ag9
ag14
ag24
ag6
ag21
aS'.'
ag19
ag23
ag11
ag24
ag8
ag20
aS'.'
ag6
ag20
ag11
ag24
ag21
ag18
aS'.'
ag18
ag13
ag2
ag24
ag16
ag4
aS'.'
ag19
ag24
ag16
ag4
ag23
ag18
aS'.'
ag2
ag23
ag11
ag24
ag21
ag11
aS'.'
ag6
ag20
ag11
ag24
ag9
ag14
aS'.'
ag15
ag24
ag23
ag11
ag22
ag19
aS'.'
ag8
ag24
ag5
ag15
ag5
ag15
aS'.'
ag8
ag24
ag15
ag22
ag21
ag14
aS'.'
ag8
ag20
ag15
ag24
ag13
ag8
aS'.'
ag18
ag24
ag6
ag21
ag13
ag4
aS'.'
ag19
ag23
ag14
ag24
ag2
ag23
aS'.'
ag2
ag24
ag15
ag23
ag23
ag8
aS'.'
ag18
ag24
ag14
ag21
ag22
ag6
aS'.'
ag19
ag22
ag18
ag24
ag16
ag14
aS'.'
ag18
ag16
ag10
ag24
ag9
ag4
aS'.'
ag10
ag24
ag20
ag6
ag20
ag14
aS'.'
ag6
ag9
ag11
ag24
ag21
ag2
aS'.'
ag15
ag24
ag23
ag18
ag13
ag11
aS'.'
ag6
ag9
ag19
ag24
ag23
ag2
aS'.'
ag11
ag24
ag9
ag14
ag5
ag10
aS'.'
ag10
ag24
ag21
ag4
ag21
ag11
aS'.'
ag15
ag13
ag14
ag24
ag21
ag11
aS'.'
ag18
ag13
ag14
ag24
ag15
ag22
aS'.'
ag11
ag24
ag2
ag23
ag21
ag10
aS'.'
ag14
ag21
ag10
ag24
ag9
ag6
aS'.'
ag18
ag22
ag19
ag24
ag23
ag2
aS'.'
ag2
ag22
ag8
ag24
ag5
ag14
aS'.'
ag14
ag9
ag11
ag24
ag21
ag8
aS'.'
ag2
ag24
ag16
ag6
ag16
ag2
aS'.'
ag10
ag5
ag2
ag24
ag16
ag2
aS'.'
ag10
ag5
ag11
ag24
ag9
ag15
aS'.'
ag11
ag24
ag21
ag4
ag9
ag19
aS'.'
ag18
ag22
ag18
ag24
ag6
ag20
aS'.'
ag8
ag9
ag18
ag24
ag16
ag4
aS'.'
ag8
ag24
ag10
ag20
ag9
ag15
aS'.'
ag11
ag24
ag15
ag22
ag5
ag6
aS'.'
ag15
ag13
ag2
ag24
ag6
ag21
aS'.'
ag10
ag5
ag19
ag24
ag2
ag23
aS'.'
ag2
ag24
ag23
ag2
ag13
ag19
aS'.'
ag2
ag13
ag8
ag24
ag6
ag20
aS'.'
ag15
ag22
ag11
ag24
ag21
ag11
aS'.'
ag14
ag24
ag21
ag6
ag20
ag4
aS'.'
ag2
ag24
ag11
ag21
ag13
ag18
aS'.'
ag14
ag21
ag15
ag24
ag6
ag20
aS'.'
ag19
ag13
ag18
ag24
ag23
ag14
aS'.'
ag8
ag21
ag15
ag24
ag23
ag11
aS'.'
ag4
ag5
ag15
ag24
ag16
ag19
aS'.'
ag2
ag16
ag8
ag24
ag20
ag14
aS'.'
ag8
ag20
ag11
ag24
ag19
ag22
aS'.'
ag18
ag24
ag23
ag18
ag23
ag2
aS'.'
ag2
ag13
ag18
ag24
ag22
ag10
aS'.'
ag15
ag13
ag18
ag24
ag23
ag14
aS'.'
ag15
ag24
ag16
ag15
ag22
ag11
aS'.'
ag14
ag24
ag9
ag2
ag5
ag4
aS'.'
ag18
ag16
ag15
ag24
ag6
ag21
aS'.'
ag2
ag16
ag19
ag24
ag16
ag4
aS'.'
ag14
ag20
ag19
ag24
ag6
ag21
aS'.'
ag15
ag16
ag18
ag24
ag13
ag19
aS'.'
ag4
ag21
ag18
ag24
ag11
ag20
aS'.'
ag11
ag20
ag2
ag24
ag13
ag19
aS'.'
ag15
ag24
ag22
ag14
ag23
ag18
aS'.'
ag10
ag21
ag11
ag24
ag4
ag20
aS'.'
ag15
ag24
ag16
ag14
ag23
ag4
aS'.'
ag18
ag24
ag23
ag6
ag13
ag11
aS'.'
ag19
ag16
ag14
ag24
ag9
ag4
aS'.'
ag10
ag24
ag20
ag18
ag20
ag11
aS'.'
ag6
ag5
ag10
ag24
ag20
ag8
aS'.'
ag19
ag24
ag23
ag2
ag16
ag11
aS'.'
ag2
ag16
ag2
ag24
ag16
ag11
aS'.'
ag2
ag24
ag22
ag15
ag16
ag6
aS'.'
ag11
ag24
ag20
ag10
ag21
ag2
aS'.'
ag8
ag21
ag15
ag24
ag16
ag6
aS'.'
ag11
ag24
ag21
ag15
ag20
ag18
aS'.'
ag18
ag16
ag2
ag24
ag23
ag14
aS'.'
ag8
ag24
ag20
ag18
ag5
ag4
aS'.'
ag6
ag20
ag8
ag24
ag21
ag8
aS'.'
ag14
ag9
ag11
ag24
ag5
ag10
aS'.'
ag11
ag24
ag21
ag18
ag9
ag18
aS'.'
ag18
ag16
ag19
ag24
ag6
ag20
aS'.'
ag4
ag20
ag19
ag24
ag23
ag14
aS'.'
ag8
ag24
ag14
ag20
ag9
ag11
aS'.'
ag6
ag5
ag11
ag24
ag20
ag10
aS'.'
ag2
ag24
ag18
ag23
ag13
ag2
aS'.'
ag4
ag9
ag10
ag24
ag21
ag14
aS'.'
ag8
ag24
ag20
ag8
ag20
ag18
aS'.'
ag4
ag5
ag11
ag24
ag10
ag21
aS'.'
ag19
ag24
ag22
ag15
ag23
ag14
aS'.'
ag18
ag24
ag22
ag11
ag22
ag15
aS'.'
ag19
ag24
ag10
ag21
ag13
ag10
aS'.'
ag4
ag20
ag14
ag24
ag18
ag23
aS'.'
ag11
ag24
ag19
ag23
ag20
ag2
aS'.'
ag15
ag24
ag16
ag6
ag13
ag19
aS'.'
ag4
ag20
ag14
ag24
ag9
ag4
aS'.'
ag6
ag9
ag8
ag24
ag21
ag2
aS'.'
ag18
ag16
ag19
ag24
ag6
ag20
aS'.'
ag8
ag21
ag8
ag24
ag9
ag6
aS'.'
ag2
ag13
ag2
ag24
ag22
ag6
aS'.'
ag14
ag24
ag20
ag19
ag20
ag14
aS'.'
ag4
ag21
ag19
ag24
ag10
ag21
aS'.'
ag2
ag24
ag23
ag15
ag13
ag4
aS'.'
ag10
ag24
ag11
ag21
ag9
ag15
aS'.'
ag10
ag24
ag9
ag18
ag21
ag18
aS'.'
ag18
ag24
ag22
ag19
ag16
ag8
aS'.'
ag4
ag21
ag11
ag24
ag5
ag10
aS'.'
ag14
ag20
ag19
ag24
ag13
ag6
aS'.'
ag2
ag24
ag22
ag19
ag23
ag18
aS'.'
ag8
ag24
ag20
ag2
ag5
ag11
aS'.'
ag14
ag24
ag5
ag14
ag9
ag19
aS'.'
ag8
ag24
ag5
ag6
ag20
ag6
aS'.'
ag8
ag9
ag18
ag24
ag16
ag4
aS'.'
ag10
ag9
ag15
ag24
ag16
ag19
aS'.'
ag11
ag24
ag8
ag21
ag20
ag4
aS'.'
ag18
ag16
ag15
ag24
ag22
ag18
aS'.'
ag4
ag5
ag8
ag24
ag21
ag18
aS'.'
ag10
ag24
ag15
ag22
ag21
ag14
aS'.'
ag8
ag20
ag8
ag24
ag20
ag2
aS'.'
ag8
ag21
ag11
ag24
ag9
ag18
aS'.'
ag19
ag13
ag10
ag24
ag2
ag22
aS'.'
ag19
ag24
ag13
ag15
ag22
ag6
aS'.'
ag10
ag24
ag21
ag11
ag5
ag10
aS'.'
ag14
ag24
ag20
ag8
ag21
ag8
aS'.'
ag15
ag24
ag4
ag21
ag16
ag11
aS'.'
ag15
ag24
ag8
ag20
ag13
ag19
aS'.'
ag2
ag22
ag15
ag24
ag13
ag8
aS'.'
ag18
ag24
ag10
ag20
ag23
ag10
aS'.'
ag15
ag24
ag16
ag18
ag16
ag2
aS'.'
ag19
ag23
ag18
ag24
ag23
ag8
aS'.'
ag11
ag24
ag10
ag20
ag9
ag6
aS'.'
ag19
ag24
ag16
ag15
ag22
ag19
aS'.'
ag18
ag13
ag14
ag24
ag9
ag2
aS'.'
ag8
ag21
ag19
ag24
ag22
ag4
aS'.'
ag15
ag16
ag18
ag24
ag23
ag14
aS'.'
ag8
ag20
ag2
ag24
ag2
ag22
aS'.'
ag8
ag24
ag9
ag10
ag20
ag15
aS'.'
ag18
ag13
ag11
ag24
ag14
ag20
aS'.'
ag11
ag24
ag2
ag22
ag20
ag8
aS'.'
ag19
ag24
ag16
ag2
ag13
ag2
aS'.'
ag18
ag23
ag8
ag24
ag9
ag11
aS'.'
ag14
ag24
ag2
ag23
ag21
ag14
aS'.'
ag8
ag24
ag21
ag19
ag5
ag14
aS'.'
ag11
ag24
ag11
ag21
ag5
ag15
aS'.'
ag19
ag24
ag8
ag20
ag13
ag15
aS'.'
ag15
ag24
ag10
ag21
ag23
ag11
aS'.'
ag15
ag23
ag19
ag24
ag16
ag11
aS'.'
ag15
ag24
ag16
ag18
ag23
ag18
aS'.'
ag18
ag13
ag11
ag24
ag9
ag6
aS'.'
ag2
ag13
ag14
ag24
ag9
ag8
aS'.'
ag14
ag20
ag10
ag24
ag20
ag15
aS'.'
ag19
ag22
ag8
ag24
ag9
ag11
aS'.'
ag2
ag23
ag15
ag24
ag13
ag14
aS'.'
ag2
ag24
ag16
ag10
ag16
ag18
aS'.'
ag11
ag24
ag5
ag10
ag5
ag6
aS'.'
ag15
ag24
ag14
ag20
ag22
ag4
aS'.'
ag15
ag13
ag19
ag24
ag15
ag23
aS'.'
ag14
ag20
ag15
ag24
ag15
ag22
aS'.'
ag18
ag16
ag8
ag24
ag20
ag11
aS'.'
ag2
ag22
ag2
ag24
ag22
ag4
aS'.'
ag2
ag24
ag22
ag14
ag22
ag14
aS'.'
ag11
ag24
ag14
ag20
ag20
ag2
aS'.'
ag18
ag24
ag13
ag19
ag16
ag18
aS'.'
ag10
ag24
ag21
ag2
ag9
ag19
aS'.'
ag6
ag9
ag10
ag24
ag8
ag20
aS'.'
ag15
ag24
ag13
ag19
ag13
ag15
aS'.'
ag15
ag23
ag18
ag24
ag4
ag21
aS'.'
ag4
ag21
ag14
ag24
ag2
ag23
aS'.'
ag14
ag24
ag10
ag21
ag20
ag19
aS'.'
ag8
ag24
ag20
ag2
ag21
ag19
aS'.'
ag19
ag16
ag15
ag24
ag11
ag21
aS'.'
ag14
ag24
ag11
ag20
ag5
ag8
aS'.'
ag11
ag24
ag21
ag2
ag21
ag14
aS'.'
ag11
ag24
ag5
ag4
ag9
ag6
aS'.'
ag10
ag24
ag21
ag2
ag5
ag18
aS'.'
ag10
ag24
ag19
ag23
ag21
ag11
aS'.'
ag6
ag5
ag11
ag24
ag20
ag6
aS'.'
ag11
ag24
ag9
ag8
ag5
ag14
aS'.'
ag10
ag9
ag10
ag24
ag21
ag6
aS'.'
ag10
ag24
ag21
ag4
ag9
ag14
aS'.'
ag19
ag24
ag14
ag20
ag16
ag14
aS'.'
ag19
ag24
ag11
ag20
ag22
ag4
aS'.'
ag14
ag24
ag2
ag23
ag20
ag19
aS'.'
ag8
ag24
ag20
ag11
ag9
ag2
aS'.'
ag15
ag22
ag11
ag24
ag9
ag10
aS'.'
ag2
ag24
ag23
ag2
ag16
ag18
aS'.'
ag19
ag13
ag10
ag24
ag5
ag2
aS'.'
ag8
ag20
ag2
ag24
ag18
ag22
aS'.'
ag11
ag24
ag5
ag14
ag9
ag18
aS'.'
ag10
ag24
ag5
ag2
ag9
ag10
aS'.'
ag15
ag24
ag23
ag2
ag16
ag18
aS'.'
ag15
ag24
ag16
ag11
ag23
ag10
aS'.'
ag18
ag22
ag15
ag24
ag22
ag4
aS'.'
ag14
ag5
ag8
ag24
ag10
ag21
aS'.'
ag2
ag22
ag18
ag24
ag14
ag20
aS'.'
ag10
ag24
ag21
ag4
ag9
ag19
aS'.'
ag14
ag24
ag21
ag15
ag9
ag10
aS'.'
ag15
ag16
ag18
ag24
ag14
ag20
aS'.'
ag4
ag9
ag18
ag24
ag23
ag11
aS'.'
ag11
ag24
ag21
ag18
ag21
ag11
aS'.'
ag2
ag23
ag15
ag24
ag16
ag4
aS'.'
ag11
ag24
ag5
ag2
ag9
ag2
aS'.'
ag8
ag20
ag18
ag24
ag22
ag8
aS'.'
ag2
ag13
ag18
ag24
ag16
ag15
aS'.'
ag2
ag24
ag22
ag2
ag23
ag4
aS'.'
ag8
ag20
ag15
ag24
ag16
ag4
aS'.'
ag18
ag24
ag18
ag22
ag23
ag8
aS'.'
ag19
ag24
ag19
ag22
ag13
ag14
aS'.'
ag14
ag24
ag20
ag6
ag21
ag10
aS'.'
ag2
ag22
ag8
ag24
ag10
ag21
aS'.'
ag19
ag16
ag2
ag24
ag23
ag2
aS'.'
ag8
ag24
ag21
ag14
ag21
ag10
aS'.'
ag19
ag16
ag19
ag24
ag23
ag11
aS'.'
ag2
ag23
ag19
ag24
ag16
ag15
aS'.'
ag14
ag21
ag18
ag24
ag19
ag23
aS'.'
ag11
ag5
ag19
ag24
ag13
ag15
aS'.'
ag15
ag24
ag13
ag4
ag22
ag18
aS'.'
ag2
ag16
ag11
ag24
ag2
ag23
aS'.'
ag8
ag24
ag9
ag15
ag9
ag15
aS'.'
ag18
ag24
ag16
ag2
ag22
ag10
aS'.'
ag19
ag24
ag16
ag10
ag22
ag8
aS'.'
ag10
ag9
ag8
ag24
ag9
ag11
aS'.'
ag8
ag9
ag15
ag24
ag16
ag15
aS'.'
ag18
ag24
ag13
ag8
ag16
ag18
aS'.'
ag11
ag24
ag9
ag2
ag21
ag10
aS'.'
ag14
ag24
ag15
ag22
ag5
ag19
aS'.'
ag11
ag20
ag14
ag24
ag21
ag19
aS'.'
ag6
ag5
ag8
ag24
ag5
ag14
aS'.'
ag19
ag24
ag16
ag10
ag23
ag4
aS'.'
ag19
ag24
ag13
ag2
ag13
ag6
aS'.'
ag14
ag24
ag21
ag19
ag20
ag6
aS'.'
ag15
ag24
ag23
ag15
ag16
ag11
aS'.'
ag2
ag24
ag8
ag20
ag13
ag18
aS'.'
ag18
ag23
ag19
ag24
ag16
ag14
aS'.'
ag15
ag13
ag15
ag24
ag23
ag10
aS'.'
ag2
ag13
ag14
ag24
ag20
ag11
aS'.'
ag15
ag24
ag23
ag11
ag23
ag10
aS'.'
ag10
ag21
ag14
ag24
ag19
ag23
aS'.'
ag15
ag24
ag13
ag19
ag23
ag19
aS'.'
ag2
ag23
ag8
ag24
ag9
ag18
aS'.'
ag8
ag24
ag2
ag23
ag5
ag18
aS'.'
ag11
ag20
ag11
ag24
ag11
ag20
aS'.'
ag19
ag22
ag10
ag24
ag21
ag2
aS'.'
ag14
ag24
ag5
ag15
ag9
ag11
aS'.'
ag10
ag24
ag21
ag18
ag9
ag14
aS'.'
ag14
ag24
ag21
ag18
ag20
ag10
aS'.'
ag15
ag24
ag22
ag6
ag16
ag14
aS'.'
ag10
ag5
ag15
ag24
ag23
ag19
aS'.'
ag18
ag16
ag15
ag24
ag23
ag4
aS'.'
ag19
ag24
ag23
ag18
ag23
ag19
aS'.'
ag10
ag20
ag15
ag24
ag23
ag8
aS'.'
ag18
ag24
ag19
ag23
ag23
ag4
aS'.'
ag11
ag21
ag15
ag24
ag16
ag8
aS'.'
ag11
ag24
ag21
ag8
ag9
ag14
aS'.'
ag6
ag5
ag10
ag24
ag9
ag8
aS'.'
ag14
ag24
ag14
ag21
ag5
ag18
aS'.'
ag18
ag13
ag11
ag24
ag11
ag20
aS'.'
ag11
ag24
ag9
ag19
ag5
ag15
aS'.'
ag11
ag24
ag19
ag22
ag9
ag4
aS'.'
ag11
ag24
ag20
ag10
ag5
ag11
aS'.'
ag10
ag24
ag5
ag11
ag9
ag18
aS'.'
ag19
ag24
ag22
ag14
ag24
ag9
ag17
aS'.'
ag18
ag24
ag16
ag16
ag2
ag24
ag13
aS'.'
ag11
ag24
ag12
ag5
ag15
ag24
ag17
aS'.'
ag2
ag24
ag17
ag22
ag14
ag24
ag5
aS'.'
ag8
ag24
ag19
ag24
ag17
ag22
ag12
aS'.'
ag10
ag24
ag20
ag11
ag24
ag9
ag12
aS'.'
ag19
ag24
ag13
ag15
ag24
ag17
ag16
aS'.'
ag11
ag24
ag9
ag20
ag15
ag24
ag16
aS'.'
ag15
ag24
ag22
ag2
ag24
ag13
ag13
aS'.'
ag15
ag24
ag13
ag8
ag24
ag12
ag16
aS'.'
ag10
ag24
ag21
ag15
ag24
ag16
ag5
aS'.'
ag11
ag24
ag20
ag11
ag24
ag12
ag9
aS'.'
ag11
ag24
ag5
ag18
ag24
ag16
ag7
aS'.'
ag18
ag24
ag8
ag24
ag7
ag20
ag13
aS'.'
ag15
ag24
ag15
ag24
ag17
ag23
ag13
aS'.'
ag19
ag24
ag16
ag2
ag24
ag16
ag3
aS'.'
ag19
ag24
ag17
ag22
ag10
ag24
ag5
aS'.'
ag2
ag24
ag3
ag13
ag15
ag24
ag13
aS'.'
ag11
ag24
ag5
ag2
ag24
ag13
ag9
aS'.'
ag8
ag24
ag18
ag24
ag3
ag22
ag7
aS'.'
ag18
ag24
ag16
ag19
ag24
ag16
ag17
aS'.'
ag10
ag24
ag9
ag9
ag15
ag24
ag16
aS'.'
ag19
ag24
ag19
ag24
ag3
ag23
ag3
aS'.'
ag14
ag24
ag12
ag5
ag8
ag24
ag12
aS'.'
ag10
ag24
ag5
ag11
ag24
ag9
ag9
aS'.'
ag19
ag24
ag19
ag24
ag13
ag22
ag17
aS'.'
ag11
ag24
ag9
ag11
ag24
ag12
ag9
aS'.'
ag10
ag24
ag9
ag9
ag8
ag24
ag9
aS'.'
ag10
ag24
ag9
ag18
ag24
ag17
ag5
aS'.'
ag11
ag24
ag7
ag21
ag19
ag24
ag17
aS'.'
ag18
ag24
ag16
ag23
ag10
ag24
ag12
aS'.'
ag19
ag24
ag11
ag24
ag9
ag20
ag3
aS'.'
ag14
ag24
ag20
ag11
ag24
ag7
ag5
aS'.'
ag18
ag24
ag13
ag14
ag24
ag5
ag13
aS'.'
ag14
ag24
ag5
ag21
ag15
ag24
ag17
aS'.'
ag19
ag24
ag3
ag22
ag14
ag24
ag7
aS'.'
ag2
ag24
ag13
ag14
ag24
ag9
ag13
aS'.'
ag8
ag24
ag12
ag5
ag15
ag24
ag16
aS'.'
ag11
ag24
ag7
ag5
ag11
ag24
ag5
aS'.'
ag14
ag24
ag9
ag8
ag24
ag7
ag12
aS'.'
ag11
ag24
ag21
ag11
ag24
ag12
ag7
aS'.'
ag18
ag24
ag17
ag22
ag10
ag24
ag9
aS'.'
ag18
ag24
ag17
ag13
ag15
ag24
ag3
aS'.'
ag19
ag24
ag17
ag13
ag19
ag24
ag13
aS'.'
ag19
ag24
ag17
ag22
ag15
ag24
ag17
aS'.'
ag2
ag24
ag18
ag24
ag17
ag22
ag16
aS'.'
ag11
ag24
ag9
ag10
ag24
ag12
ag9
aS'.'
ag10
ag24
ag5
ag9
ag2
ag24
ag17
aS'.'
ag14
ag24
ag5
ag5
ag18
ag24
ag17
aS'.'
ag10
ag24
ag12
ag5
ag2
ag24
ag17
aS'.'
ag11
ag24
ag19
ag24
ag16
ag23
ag5
aS'.'
ag14
ag24
ag14
ag24
ag9
ag20
ag12
aS'.'
ag10
ag24
ag9
ag8
ag24
ag5
ag9
aS'.'
ag15
ag24
ag19
ag24
ag16
ag22
ag16
aS'.'
ag11
ag24
ag5
ag14
ag24
ag7
ag9
aS'.'
ag19
ag24
ag16
ag19
ag24
ag17
ag17
aS'.'
ag8
ag24
ag5
ag9
ag18
ag24
ag13
aS'.'
ag2
ag24
ag3
ag23
ag14
ag24
ag12
aS'.'
ag8
ag24
ag12
ag5
ag2
ag24
ag17
aS'.'
ag11
ag24
ag21
ag2
ag24
ag13
ag5
aS'.'
ag18
ag24
ag22
ag8
ag24
ag12
ag13
aS'.'
ag14
ag24
ag10
ag24
ag7
ag20
ag5
aS'.'
ag10
ag24
ag20
ag2
ag24
ag3
ag5
aS'.'
ag8
ag24
ag20
ag15
ag24
ag13
ag12
aS'.'
ag11
ag24
ag19
ag24
ag16
ag22
ag7
aS'.'
ag18
ag24
ag13
ag16
ag14
ag24
ag9
aS'.'
ag2
ag24
ag17
ag22
ag15
ag24
ag17
aS'.'
ag10
ag24
ag12
ag21
ag10
ag24
ag9
aS'.'
ag19
ag24
ag3
ag23
ag10
ag24
ag7
aS'.'
ag19
ag24
ag22
ag18
ag24
ag17
ag3
aS'.'
ag11
ag24
ag18
ag24
ag16
ag23
ag12
aS'.'
ag18
ag24
ag11
ag24
ag5
ag20
ag16
aS'.'
ag2
ag24
ag13
ag14
ag24
ag12
ag13
aS'.'
ag8
ag24
ag12
ag20
ag2
ag24
ag17
aS'.'
ag10
ag24
ag9
ag5
ag14
ag24
ag7
aS'.'
ag8
ag24
ag21
ag2
ag24
ag16
ag9
aS'.'
ag8
ag24
ag18
ag24
ag3
ag23
ag5
aS'.'
ag14
ag24
ag9
ag5
ag11
ag24
ag5
aS'.'
ag2
ag24
ag16
ag13
ag18
ag24
ag16
aS'.'
ag8
ag24
ag21
ag10
ag24
ag7
ag5
aS'.'
ag2
ag24
ag13
ag11
ag24
ag9
ag13
aS'.'
ag18
ag24
ag17
ag22
ag15
ag24
ag17
aS'.'
ag8
ag24
ag9
ag20
ag8
ag24
ag9
aS'.'
ag15
ag24
ag16
ag23
ag10
ag24
ag7
aS'.'
ag19
ag24
ag2
ag24
ag3
ag23
ag3
aS'.'
ag11
ag24
ag21
ag11
ag24
ag5
ag5
aS'.'
ag2
ag24
ag13
ag15
ag24
ag3
ag17
aS'.'
ag15
ag24
ag13
ag19
ag24
ag17
ag3
aS'.'
ag19
ag24
ag16
ag14
ag24
ag12
ag3
aS'.'
ag19
ag24
ag22
ag8
ag24
ag5
ag16
aS'.'
ag15
ag24
ag8
ag24
ag12
ag21
ag3
aS'.'
ag15
ag24
ag17
ag23
ag19
ag24
ag16
aS'.'
ag2
ag24
ag13
ag19
ag24
ag3
ag13
aS'.'
ag14
ag24
ag12
ag21
ag19
ag24
ag17
aS'.'
ag10
ag24
ag20
ag14
ag24
ag7
ag5
aS'.'
ag15
ag24
ag23
ag10
ag24
ag12
ag17
aS'.'
ag11
ag24
ag12
ag9
ag2
ag24
ag3
aS'.'
ag14
ag24
ag8
ag24
ag7
ag21
ag5
aS'.'
ag14
ag24
ag9
ag5
ag10
ag24
ag9
aS'.'
ag10
ag24
ag20
ag11
ag24
ag12
ag5
aS'.'
ag10
ag24
ag12
ag9
ag15
ag24
ag3
aS'.'
ag19
ag24
ag13
ag19
ag24
ag17
ag16
aS'.'
ag19
ag24
ag13
ag8
ag24
ag7
ag13
aS'.'
ag14
ag24
ag12
ag9
ag2
ag24
ag13
aS'.'
ag19
ag24
ag17
ag13
ag8
ag24
ag7
aS'.'
ag10
ag24
ag20
ag18
ag24
ag3
ag9
aS'.'
ag2
ag24
ag23
ag11
ag24
ag5
ag16
aS'.'
ag10
ag24
ag9
ag5
ag18
ag24
ag3
aS'.'
ag2
ag24
ag3
ag23
ag15
ag24
ag17
aS'.'
ag19
ag24
ag3
ag23
ag19
ag24
ag16
aS'.'
ag10
ag24
ag5
ag18
ag24
ag17
ag9
aS'.'
ag11
ag24
ag9
ag20
ag14
ag24
ag9
aS'.'
ag19
ag24
ag16
ag16
ag18
ag24
ag13
aS'.'
ag11
ag24
ag18
ag24
ag3
ag23
ag9
aS'.'
ag10
ag24
ag12
ag21
ag18
ag24
ag16
aS'.'
ag2
ag24
ag13
ag19
ag24
ag3
ag13
aS'.'
ag2
ag24
ag17
ag16
ag14
ag24
ag7
aS'.'
ag11
ag24
ag7
ag5
ag10
ag24
ag5
aS'.'
ag19
ag24
ag18
ag24
ag13
ag23
ag3
aS'.'
ag8
ag24
ag12
ag5
ag18
ag24
ag13
aS'.'
ag15
ag24
ag17
ag22
ag19
ag24
ag13
aS'.'
ag11
ag24
ag12
ag9
ag19
ag24
ag3
aS'.'
ag11
ag24
ag2
ag24
ag16
ag23
ag5
aS'.'
ag2
ag24
ag23
ag14
ag24
ag5
ag13
aS'.'
ag15
ag24
ag17
ag16
ag19
ag24
ag13
aS'.'
ag8
ag24
ag12
ag21
ag2
ag24
ag16
aS'.'
ag14
ag24
ag21
ag18
ag24
ag3
ag5
aS'.'
ag2
ag24
ag16
ag10
ag24
ag5
ag17
aS'.'
ag15
ag24
ag3
ag22
ag11
ag24
ag12
aS'.'
ag14
ag24
ag14
ag24
ag9
ag20
ag12
aS'.'
ag8
ag24
ag12
ag5
ag10
ag24
ag9
aS'.'
ag8
ag24
ag10
ag24
ag9
ag20
ag7
aS'.'
ag8
ag24
ag21
ag10
ag24
ag9
ag7
aS'.'
ag8
ag24
ag9
ag14
ag24
ag5
ag12
aS'.'
ag11
ag24
ag7
ag20
ag11
ag24
ag9
aS'.'
ag14
ag24
ag14
ag24
ag7
ag20
ag5
aS'.'
ag2
ag24
ag23
ag14
ag24
ag5
ag13
aS'.'
ag11
ag24
ag20
ag8
ag24
ag9
ag12
aS'.'
ag18
ag24
ag3
ag16
ag18
ag24
ag3
aS'.'
ag2
ag24
ag16
ag10
ag24
ag7
ag16
aS'.'
ag10
ag24
ag21
ag10
ag24
ag9
ag12
aS'.'
ag10
ag24
ag20
ag19
ag24
ag16
ag12
aS'.'
ag10
ag24
ag21
ag15
ag24
ag16
ag7
aS'.'
ag19
ag24
ag16
ag2
ag24
ag16
ag3
aS'.'
ag8
ag24
ag12
ag21
ag14
ag24
ag12
aS'.'
ag15
ag24
ag10
ag24
ag12
ag20
ag17
aS'.'
ag10
ag24
ag9
ag9
ag19
ag24
ag13
aS'.'
ag2
ag24
ag16
ag18
ag24
ag17
ag13
aS'.'
ag10
ag24
ag9
ag15
ag24
ag17
ag12
aS'.'
ag15
ag24
ag16
ag10
ag24
ag7
ag17
aS'.'
ag14
ag24
ag7
ag5
ag15
ag24
ag17
aS'.'
ag10
ag24
ag12
ag20
ag19
ag24
ag16
aS'.'
ag19
ag24
ag23
ag11
ag24
ag12
ag3
aS'.'
ag10
ag24
ag21
ag11
ag24
ag7
ag12
aS'.'
ag2
ag24
ag16
ag11
ag24
ag7
ag13
aS'.'
ag8
ag24
ag2
ag24
ag13
ag22
ag7
aS'.'
ag10
ag24
ag20
ag15
ag24
ag3
ag5
aS'.'
ag11
ag24
ag7
ag5
ag18
ag24
ag3
aS'.'
ag2
ag24
ag22
ag10
ag24
ag12
ag13
aS'.'
ag18
ag24
ag13
ag10
ag24
ag12
ag16
aS'.'
ag2
ag24
ag17
ag22
ag14
ag24
ag12
aS'.'
ag18
ag24
ag22
ag18
ag24
ag16
ag16
aS'.'
ag8
ag24
ag20
ag18
ag24
ag3
ag5
aS'.'
ag11
ag24
ag14
ag24
ag12
ag20
ag12
aS'.'
ag8
ag24
ag20
ag11
ag24
ag5
ag9
aS'.'
ag14
ag24
ag9
ag5
ag11
ag24
ag5
aS'.'
ag11
ag24
ag2
ag24
ag17
ag22
ag5
aS'.'
ag10
ag24
ag18
ag24
ag3
ag23
ag7
aS'.'
ag15
ag24
ag13
ag18
ag24
ag17
ag3
aS'.'
ag18
ag24
ag13
ag22
ag11
ag24
ag7
aS'.'
ag15
ag24
ag13
ag2
ag24
ag3
ag3
aS'.'
ag11
ag24
ag7
ag21
ag11
ag24
ag12
aS'.'
ag15
ag24
ag17
ag16
ag15
ag24
ag16
aS'.'
ag19
ag24
ag23
ag18
ag24
ag16
ag3
aS'.'
ag2
ag24
ag3
ag13
ag10
ag24
ag9
aS'.'
ag15
ag24
ag17
ag22
ag10
ag24
ag9
aS'.'
ag15
ag24
ag22
ag8
ag24
ag5
ag17
aS'.'
ag18
ag24
ag22
ag14
ag24
ag12
ag13
aS'.'
ag8
ag24
ag19
ag24
ag16
ag23
ag7
aS'.'
ag19
ag24
ag23
ag11
ag24
ag9
ag13
aS'.'
ag19
ag24
ag16
ag10
ag24
ag9
ag16
aS'.'
ag15
ag24
ag17
ag23
ag14
ag24
ag7
aS'.'
ag8
ag24
ag9
ag21
ag11
ag24
ag7
aS'.'
ag15
ag24
ag13
ag13
ag18
ag24
ag13
aS'.'
ag15
ag24
ag16
ag23
ag19
ag24
ag17
aS'.'
ag11
ag24
ag7
ag20
ag11
ag24
ag5
aS'.'
ag2
ag24
ag13
ag10
ag24
ag9
ag13
aS'.'
ag14
ag24
ag9
ag21
ag2
ag24
ag3
aS'.'
ag10
ag24
ag5
ag20
ag11
ag24
ag5
aS'.'
ag11
ag24
ag9
ag21
ag18
ag24
ag13
aS'.'
ag10
ag24
ag15
ag24
ag17
ag23
ag9
aS'.'
ag15
ag24
ag16
ag16
ag14
ag24
ag5
aS'.'
ag10
ag24
ag7
ag20
ag19
ag24
ag3
aS'.'
ag8
ag24
ag19
ag24
ag17
ag22
ag9
aS'.'
ag2
ag24
ag22
ag14
ag24
ag9
ag3
aS'.'
ag11
ag24
ag5
ag2
ag24
ag17
ag5
aS'.'
ag18
ag24
ag23
ag14
ag24
ag12
ag3
aS'.'
ag2
ag24
ag16
ag23
ag10
ag24
ag9
aS'.'
ag18
ag24
ag17
ag22
ag19
ag24
ag17
aS'.'
ag14
ag24
ag7
ag21
ag14
ag24
ag12
aS'.'
ag11
ag24
ag9
ag5
ag2
ag24
ag17
aS'.'
ag18
ag24
ag17
ag16
ag18
ag24
ag16
aS'.'
ag10
ag24
ag9
ag2
ag24
ag16
ag9
aS'.'
ag8
ag24
ag7
ag20
ag15
ag24
ag13
aS'.'
ag11
ag24
ag12
ag20
ag8
ag24
ag12
aS'.'
ag10
ag24
ag9
ag9
ag8
ag24
ag7
aS'.'
ag18
ag24
ag22
ag11
ag24
ag9
ag16
aS'.'
ag18
ag24
ag19
ag24
ag17
ag23
ag13
aS'.'
ag11
ag24
ag14
ag24
ag12
ag20
ag5
aS'.'
ag10
ag24
ag9
ag11
ag24
ag5
ag9
aS'.'
ag2
ag24
ag16
ag19
ag24
ag17
ag3
aS'.'
ag11
ag24
ag20
ag15
ag24
ag16
ag12
aS'.'
ag10
ag24
ag15
ag24
ag16
ag22
ag12
aS'.'
ag14
ag24
ag10
ag24
ag9
ag21
ag5
aS'.'
ag15
ag24
ag22
ag10
ag24
ag12
ag16
aS'.'
ag19
ag24
ag13
ag11
ag24
ag9
ag17
aS'.'
ag10
ag24
ag21
ag10
ag24
ag5
ag12
aS'.'
ag19
ag24
ag16
ag13
ag14
ag24
ag9
aS'.'
ag8
ag24
ag18
ag24
ag13
ag23
ag7
aS'.'
ag11
ag24
ag9
ag10
ag24
ag12
ag7
aS'.'
ag14
ag24
ag20
ag8
ag24
ag7
ag5
aS'.'
ag11
ag24
ag14
ag24
ag5
ag20
ag7
aS'.'
ag11
ag24
ag21
ag19
ag24
ag17
ag5
aS'.'
ag18
ag24
ag17
ag16
ag11
ag24
ag9
aS'.'
ag8
ag24
ag9
ag9
ag15
ag24
ag16
aS'.'
ag2
ag24
ag22
ag14
ag24
ag9
ag3
aS'.'
ag10
ag24
ag19
ag24
ag16
ag22
ag5
aS'.'
ag14
ag24
ag20
ag2
ag24
ag3
ag7
aS'.'
ag8
ag24
ag14
ag24
ag5
ag20
ag12
aS'.'
ag10
ag24
ag5
ag5
ag14
ag24
ag12
aS'.'
ag15
ag24
ag3
ag16
ag11
ag24
ag12
aS'.'
ag11
ag24
ag7
ag20
ag8
ag24
ag12
aS'.'
ag2
ag24
ag3
ag22
ag8
ag24
ag9
aS'.'
ag19
ag24
ag23
ag18
ag24
ag3
ag17
aS'.'
ag19
ag24
ag3
ag23
ag14
ag24
ag9
aS'.'
ag2
ag24
ag13
ag16
ag2
ag24
ag16
aS'.'
ag14
ag24
ag5
ag20
ag15
ag24
ag13
aS'.'
ag15
ag24
ag23
ag19
ag24
ag13
ag16
aS'.'
ag8
ag24
ag11
ag24
ag7
ag21
ag5
aS'.'
ag11
ag24
ag5
ag9
ag11
ag24
ag9
aS'.'
ag18
ag24
ag16
ag18
ag24
ag16
ag13
aS'.'
ag11
ag24
ag10
ag24
ag5
ag20
ag12
aS'.'
ag18
ag24
ag13
ag23
ag10
ag24
ag12
aS'.'
ag15
ag24
ag13
ag10
ag24
ag12
ag16
aS'.'
ag15
ag24
ag22
ag2
ag24
ag17
ag16
aS'.'
ag18
ag24
ag16
ag22
ag2
ag24
ag16
aS'.'
ag8
ag24
ag21
ag2
ag24
ag16
ag5
aS'.'
ag8
ag24
ag5
ag5
ag8
ag24
ag7
aS'.'
ag19
ag24
ag16
ag23
ag18
ag24
ag13
aS'.'
ag19
ag24
ag3
ag13
ag15
ag24
ag13
aS'.'
ag14
ag24
ag12
ag21
ag19
ag24
ag13
aS'.'
ag14
ag24
ag21
ag18
ag24
ag17
ag7
aS'.'
ag15
ag24
ag23
ag19
ag24
ag3
ag17
aS'.'
ag2
ag24
ag16
ag8
ag24
ag5
ag16
aS'.'
ag11
ag24
ag5
ag5
ag2
ag24
ag17
aS'.'
ag10
ag24
ag5
ag18
ag24
ag16
ag12
aS'.'
ag2
ag24
ag16
ag15
ag24
ag3
ag16
aS'.'
ag18
ag24
ag11
ag24
ag7
ag21
ag3
aS'.'
ag14
ag24
ag9
ag21
ag18
ag24
ag16
aS'.'
ag15
ag24
ag17
ag16
ag2
ag24
ag3
aS'.'
ag11
ag24
ag10
ag24
ag7
ag20
ag5
aS'.'
ag11
ag24
ag9
ag9
ag10
ag24
ag5
aS'.'
ag2
ag24
ag13
ag22
ag2
ag24
ag3
aS'.'
ag15
ag24
ag3
ag23
ag18
ag24
ag3
aS'.'
ag18
ag24
ag10
ag24
ag9
ag21
ag13
aS'.'
ag19
ag24
ag22
ag14
ag24
ag5
ag17
aS'.'
ag10
ag24
ag8
ag24
ag5
ag20
ag9
aS'.'
ag15
ag24
ag16
ag2
ag24
ag16
ag16
aS'.'
ag11
ag24
ag21
ag10
ag24
ag5
ag7
aS'.'
ag11
ag24
ag21
ag11
ag24
ag5
ag9
aS'.'
ag10
ag24
ag12
ag9
ag10
ag24
ag12
aS'.'
ag2
ag24
ag3
ag23
ag19
ag24
ag17
aS'.'
ag10
ag24
ag5
ag20
ag8
ag24
ag5
aS'.'
ag2
ag24
ag16
ag14
ag24
ag9
ag13
aS'.'
ag14
ag24
ag7
ag9
ag2
ag24
ag3
aS'.'
ag19
ag24
ag16
ag16
ag14
ag24
ag7
aS'.'
ag18
ag24
ag11
ag24
ag5
ag20
ag13
aS'.'
ag10
ag24
ag21
ag19
ag24
ag16
ag12
aS'.'
ag10
ag24
ag9
ag9
ag19
ag24
ag17
aS'.'
ag19
ag24
ag13
ag11
ag24
ag7
ag13
aS'.'
ag14
ag24
ag19
ag24
ag13
ag22
ag7
aS'.'
ag11
ag24
ag5
ag10
ag24
ag9
ag9
aS'.'
ag15
ag24
ag23
ag19
ag24
ag13
ag3
aS'.'
ag10
ag24
ag12
ag21
ag2
ag24
ag13
aS'.'
ag19
ag24
ag3
ag16
ag19
ag24
ag13
aS'.'
ag18
ag24
ag13
ag14
ag24
ag9
ag16
aS'.'
ag14
ag24
ag5
ag20
ag11
ag24
ag7
aS'.'
ag18
ag24
ag22
ag10
ag24
ag7
ag3
aS'.'
ag14
ag24
ag14
ag24
ag12
ag20
ag12
aS'.'
ag15
ag24
ag16
ag16
ag14
ag24
ag12
aS'.'
ag8
ag24
ag9
ag9
ag15
ag24
ag3
aS'.'
ag10
ag24
ag10
ag24
ag9
ag21
ag7
aS'.'
ag15
ag24
ag16
ag18
ag24
ag16
ag16
aS'.'
ag10
ag24
ag12
ag21
ag14
ag24
ag9
aS'.'
ag10
ag24
ag7
ag21
ag14
ag24
ag5
aS'.'
ag2
ag24
ag23
ag8
ag24
ag7
ag3
aS'.'
ag15
ag24
ag13
ag13
ag2
ag24
ag3
aS'.'
ag2
ag24
ag17
ag16
ag14
ag24
ag12
aS'.'
ag10
ag24
ag5
ag9
ag15
ag24
ag3
aS'.'
ag15
ag24
ag16
ag23
ag18
ag24
ag16
aS'.'
ag19
ag24
ag23
ag8
ag24
ag7
ag17
aS'.'
ag18
ag24
ag23
ag10
ag24
ag12
ag3
aS'.'
ag2
ag24
ag16
ag16
ag18
ag24
ag17
aS'.'
ag19
ag24
ag13
ag15
ag24
ag3
ag13
aS'.'
ag11
ag24
ag9
ag5
ag11
ag24
ag12
aS'.'
ag8
ag24
ag15
ag24
ag17
ag23
ag12
aS'.'
ag11
ag24
ag9
ag2
ag24
ag3
ag5
aS'.'
ag18
ag24
ag17
ag16
ag10
ag24
ag7
aS'.'
ag11
ag24
ag9
ag9
ag18
ag24
ag17
aS'.'
ag11
ag24
ag5
ag5
ag18
ag24
ag3
aS'.'
ag2
ag24
ag16
ag22
ag14
ag24
ag9
aS'.'
ag14
ag24
ag5
ag21
ag15
ag24
ag16
aS'.'
ag10
ag24
ag5
ag21
ag8
ag24
ag9
aS'.'
ag14
ag24
ag7
ag21
ag14
ag24
ag5
aS'.'
ag14
ag24
ag15
ag24
ag17
ag23
ag9
aS'.'
ag11
ag24
ag20
ag19
ag24
ag3
ag9
aS'.'
ag10
ag24
ag5
ag15
ag24
ag3
ag12
aS'.'
ag8
ag24
ag5
ag15
ag24
ag3
ag7
aS'.'
ag2
ag24
ag23
ag11
ag24
ag7
ag16
aS'.'
ag2
ag24
ag13
ag13
ag15
ag24
ag16
aS'.'
ag8
ag24
ag18
ag24
ag3
ag22
ag9
aS'.'
ag10
ag24
ag9
ag14
ag24
ag12
ag5
aS'.'
ag19
ag24
ag17
ag22
ag11
ag24
ag5
aS'.'
ag8
ag24
ag5
ag10
ag24
ag9
ag7
aS'.'
ag19
ag24
ag2
ag24
ag17
ag23
ag17
aS'.'
ag19
ag24
ag15
ag24
ag3
ag22
ag3
aS'.'
ag14
ag24
ag5
ag9
ag10
ag24
ag5
aS'.'
ag14
ag24
ag18
ag24
ag3
ag23
ag5
aS'.'
ag8
ag24
ag5
ag18
ag24
ag3
ag5
aS'.'
ag10
ag24
ag7
ag5
ag8
ag24
ag5
aS'.'
ag10
ag24
ag5
ag21
ag19
ag24
ag3
aS'.'
ag2
ag24
ag23
ag2
ag24
ag17
ag16
aS'.'
ag18
ag24
ag14
ag24
ag5
ag21
ag13
aS'.'
ag18
ag24
ag15
ag24
ag17
ag22
ag13
aS'.'
ag19
ag24
ag16
ag16
ag2
ag24
ag3
aS'.'
ag18
ag24
ag14
ag24
ag9
ag21
ag13
aS'.'
ag10
ag24
ag7
ag5
ag19
ag24
ag16
aS'.'
ag2
ag24
ag13
ag13
ag15
ag24
ag16
aS'.'
ag8
ag24
ag12
ag21
ag19
ag24
ag16
aS'.'
ag10
ag24
ag12
ag20
ag14
ag24
ag12
aS'.'
ag8
ag24
ag5
ag9
ag14
ag24
ag7
aS'.'
ag10
ag24
ag8
ag24
ag5
ag21
ag5
aS'.'
ag2
ag24
ag23
ag14
ag24
ag9
ag16
aS'.'
ag2
ag24
ag16
ag13
ag19
ag24
ag3
aS'.'
ag19
ag24
ag17
ag22
ag19
ag24
ag17
aS'.'
ag18
ag24
ag19
ag24
ag17
ag22
ag3
aS'.'
ag11
ag24
ag5
ag19
ag24
ag13
ag7
aS'.'
ag15
ag24
ag23
ag11
ag24
ag12
ag16
aS'.'
ag18
ag24
ag16
ag16
ag2
ag24
ag16
aS'.'
ag18
ag24
ag15
ag24
ag3
ag23
ag13
aS'.'
ag19
ag24
ag13
ag22
ag8
ag24
ag12
aS'.'
ag10
ag24
ag9
ag20
ag15
ag24
ag3
aS'.'
ag15
ag24
ag3
ag22
ag19
ag24
ag13
aS'.'
ag19
ag24
ag13
ag8
ag24
ag12
ag16
aS'.'
ag15
ag24
ag13
ag22
ag14
ag24
ag9
aS'.'
ag11
ag24
ag14
ag24
ag7
ag21
ag7
aS'.'
ag2
ag24
ag22
ag2
ag24
ag3
ag16
aS'.'
ag15
ag24
ag8
ag24
ag12
ag20
ag13
aS'.'
ag11
ag24
ag5
ag9
ag19
ag24
ag3
aS'.'
ag11
ag24
ag8
ag24
ag5
ag20
ag5
aS'.'
ag18
ag24
ag23
ag8
ag24
ag7
ag16
aS'.'
ag14
ag24
ag12
ag5
ag18
ag24
ag3
aS'.'
ag15
ag24
ag17
ag16
ag15
ag24
ag13
aS'.'
ag14
ag24
ag9
ag10
ag24
ag7
ag7
aS'.'
ag11
ag24
ag19
ag24
ag3
ag23
ag9
aS'.'
ag19
ag24
ag22
ag14
ag24
ag7
ag16
aS'.'
ag18
ag24
ag14
ag24
ag12
ag21
ag16
aS'.'
ag15
ag24
ag13
ag13
ag10
ag24
ag9
aS'.'
ag10
ag24
ag7
ag5
ag11
ag24
ag7
aS'.'
ag15
ag24
ag16
ag22
ag18
ag24
ag17
aS'.'
ag18
ag24
ag18
ag24
ag3
ag22
ag13
aS'.'
ag10
ag24
ag5
ag9
ag15
ag24
ag3
aS'.'
ag18
ag24
ag17
ag16
ag2
ag24
ag17
aS'.'
ag2
ag24
ag13
ag13
ag15
ag24
ag17
aS'.'
ag8
ag24
ag2
ag24
ag16
ag23
ag9
aS'.'
ag8
ag24
ag14
ag24
ag5
ag21
ag12
aS'.'
ag14
ag24
ag20
ag18
ag24
ag13
ag12
aS'.'
ag18
ag24
ag8
ag24
ag5
ag20
ag17
aS'.'
ag14
ag24
ag21
ag15
ag24
ag13
ag12
aS'.'
ag11
ag24
ag5
ag20
ag11
ag24
ag9
aS'.'
ag15
ag24
ag18
ag24
ag13
ag22
ag3
aS'.'
ag2
ag24
ag13
ag13
ag15
ag24
ag3
aS'.'
ag14
ag24
ag7
ag5
ag10
ag24
ag12
aS'.'
ag15
ag24
ag22
ag11
ag24
ag12
ag16
aS'.'
ag2
ag24
ag16
ag11
ag24
ag9
ag17
aS'.'
ag10
ag24
ag21
ag11
ag24
ag9
ag9
aS'.'
ag19
ag24
ag16
ag13
ag15
ag24
ag17
aS'.'
ag10
ag24
ag5
ag5
ag14
ag24
ag9
aS'.'
ag14
ag24
ag12
ag5
ag2
ag24
ag16
aS'.'
ag11
ag24
ag12
ag5
ag2
ag24
ag17
aS'.'
ag15
ag24
ag17
ag22
ag2
ag24
ag13
aS'.'
ag19
ag24
ag23
ag15
ag24
ag3
ag3
aS'.'
ag10
ag24
ag9
ag9
ag8
ag24
ag5
aS'.'
ag15
ag24
ag18
ag24
ag3
ag23
ag17
aS'.'
ag2
ag24
ag13
ag19
ag24
ag16
ag13
aS'.'
ag15
ag24
ag16
ag18
ag24
ag17
ag17
aS'.'
ag11
ag24
ag20
ag11
ag24
ag5
ag7
aS'.'
ag14
ag24
ag9
ag15
ag24
ag16
ag12
aS'.'
ag10
ag24
ag12
ag9
ag14
ag24
ag12
aS'.'
ag11
ag24
ag21
ag14
ag24
ag12
ag7
aS'.'
ag14
ag24
ag9
ag18
ag24
ag3
ag5
aS'.'
ag10
ag24
ag21
ag19
ag24
ag13
ag5
aS'.'
ag14
ag24
ag5
ag21
ag10
ag24
ag9
aS'.'
ag8
ag24
ag9
ag2
ag24
ag3
ag7
aS'.'
ag18
ag24
ag22
ag18
ag24
ag16
ag17
aS'.'
ag2
ag24
ag3
ag22
ag18
ag24
ag16
aS'.'
ag19
ag24
ag13
ag19
ag24
ag13
ag16
aS'.'
ag10
ag24
ag7
ag5
ag15
ag24
ag3
aS'.'
ag8
ag24
ag5
ag14
ag24
ag12
ag7
aS'.'
ag15
ag24
ag22
ag15
ag24
ag13
ag13
aS'.'
ag2
ag24
ag22
ag10
ag24
ag12
ag13
aS'.'
ag10
ag24
ag7
ag20
ag8
ag24
ag12
aS'.'
ag10
ag24
ag12
ag9
ag19
ag24
ag3
aS'.'
ag19
ag24
ag22
ag19
ag24
ag3
ag13
aS'.'
ag14
ag24
ag19
ag24
ag16
ag23
ag9
aS'.'
ag10
ag24
ag12
ag20
ag14
ag24
ag12
aS'.'
ag2
ag24
ag8
ag24
ag7
ag20
ag13
aS'.'
ag8
ag24
ag21
ag2
ag24
ag17
ag5
aS'.'
ag10
ag24
ag7
ag20
ag2
ag24
ag17
aS'.'
ag2
ag24
ag16
ag10
ag24
ag7
ag13
aS'.'
ag18
ag24
ag2
ag24
ag17
ag22
ag3
aS'.'
ag11
ag24
ag12
ag21
ag18
ag24
ag16
aS'.'
ag19
ag24
ag16
ag19
ag24
ag3
ag3
aS'.'
ag19
ag24
ag17
ag23
ag8
ag24
ag12
aS'.'
ag8
ag24
ag7
ag21
ag14
ag24
ag7
aS'.'
ag10
ag24
ag12
ag5
ag11
ag24
ag12
aS'.'
ag14
ag24
ag2
ag24
ag13
ag23
ag7
aS'.'
ag19
ag24
ag13
ag13
ag2
ag24
ag16
aS'.'
ag18
ag24
ag16
ag16
ag14
ag24
ag12
aS'.'
ag10
ag24
ag21
ag11
ag24
ag5
ag12
aS'.'
ag19
ag24
ag17
ag16
ag8
ag24
ag12
aS'.'
ag8
ag24
ag9
ag11
ag24
ag9
ag9
aS'.'
ag15
ag24
ag17
ag13
ag10
ag24
ag9
aS'.'
ag2
ag24
ag22
ag10
ag24
ag12
ag13
aS'.'
ag15
ag24
ag8
ag24
ag5
ag21
ag3
aS'.'
ag10
ag24
ag7
ag5
ag19
ag24
ag3
aS'.'
ag18
ag24
ag11
ag24
ag5
ag20
ag13
aS'.'
ag15
ag24
ag14
ag24
ag9
ag21
ag3
aS'.'
ag19
ag24
ag23
ag14
ag24
ag5
ag13
aS'.'
ag15
ag24
ag13
ag16
ag2
ag24
ag17
aS'.'
ag19
ag24
ag22
ag14
ag24
ag5
ag13
aS'.'
ag19
ag24
ag23
ag10
ag24
ag9
ag17
aS'.'
ag18
ag24
ag14
ag24
ag7
ag20
ag3
aS'.'
ag2
ag24
ag16
ag16
ag14
ag24
ag9
aS'.'
ag14
ag24
ag5
ag21
ag11
ag24
ag7
aS'.'
ag18
ag24
ag17
ag13
ag2
ag24
ag13
aS'.'
ag10
ag24
ag21
ag14
ag24
ag9
ag5
aS'.'
ag8
ag24
ag5
ag11
ag24
ag12
ag5
aS'.'
ag15
ag24
ag17
ag23
ag10
ag24
ag9
aS'.'
ag15
ag24
ag16
ag8
ag24
ag7
ag16
aS'.'
ag8
ag24
ag15
ag24
ag16
ag23
ag12
aS'.'
ag11
ag24
ag21
ag18
ag24
ag17
ag5
aS'.'
ag2
ag24
ag14
ag24
ag5
ag21
ag13
aS'.'
ag19
ag24
ag16
ag8
ag24
ag5
ag3
aS'.'
ag19
ag24
ag13
ag8
ag24
ag9
ag17
aS'.'
ag11
ag24
ag5
ag20
ag18
ag24
ag16
aS'.'
ag10
ag24
ag18
ag24
ag17
ag23
ag5
aS'.'
ag11
ag24
ag14
ag24
ag9
ag20
ag5
aS'.'
ag19
ag24
ag13
ag8
ag24
ag7
ag3
aS'.'
ag14
ag24
ag7
ag20
ag11
ag24
ag9
aS'.'
ag18
ag24
ag13
ag11
ag24
ag12
ag13
aS'.'
ag18
ag24
ag22
ag11
ag24
ag5
ag16
aS'.'
ag8
ag24
ag9
ag14
ag24
ag9
ag12
aS'.'
ag18
ag24
ag15
ag24
ag3
ag22
ag3
aS'.'
ag11
ag24
ag9
ag8
ag24
ag7
ag5
aS'.'
ag15
ag24
ag16
ag23
ag14
ag24
ag12
aS'.'
ag19
ag24
ag19
ag24
ag13
ag23
ag3
aS'.'
ag10
ag24
ag12
ag20
ag15
ag24
ag3
aS'.'
ag2
ag24
ag3
ag22
ag10
ag24
ag7
aS'.'
ag2
ag24
ag13
ag19
ag24
ag13
ag13
aS'.'
ag11
ag24
ag12
ag9
ag15
ag24
ag3
aS'.'
ag8
ag24
ag20
ag10
ag24
ag9
ag9
aS'.'
ag10
ag24
ag12
ag21
ag10
ag24
ag12
aS'.'
ag15
ag24
ag19
ag24
ag3
ag22
ag16
aS'.'
ag14
ag24
ag5
ag9
ag8
ag24
ag7
aS'.'
ag19
ag24
ag16
ag13
ag8
ag24
ag9
aS'.'
ag2
ag24
ag16
ag19
ag24
ag13
ag3
aS'.'
ag18
ag24
ag16
ag19
ag24
ag13
ag16
aS'.'
ag18
ag24
ag13
ag11
ag24
ag7
ag16
aS'.'
ag8
ag24
ag20
ag11
ag24
ag7
ag9
aS'.'
ag10
ag24
ag20
ag8
ag24
ag9
ag7
aS'.'
ag11
ag24
ag20
ag15
ag24
ag16
ag7
aS'.'
ag8
ag24
ag19
ag24
ag3
ag23
ag5
aS'.'
ag18
ag24
ag13
ag18
ag24
ag17
ag3
aS'.'
ag2
ag24
ag13
ag18
ag24
ag16
ag3
aS'.'
ag8
ag24
ag5
ag2
ag24
ag17
ag12
aS'.'
ag14
ag24
ag20
ag11
ag24
ag7
ag7
aS'.'
ag19
ag24
ag13
ag14
ag24
ag7
ag13
aS'.'
ag14
ag24
ag9
ag2
ag24
ag17
ag9
aS'.'
ag10
ag24
ag9
ag9
ag2
ag24
ag13
aS'.'
ag15
ag24
ag23
ag14
ag24
ag12
ag3
aS'.'
ag2
ag24
ag13
ag18
ag24
ag3
ag17
aS'.'
ag18
ag24
ag13
ag2
ag24
ag3
ag16
aS'.'
ag2
ag24
ag2
ag24
ag13
ag22
ag13
aS'.'
ag19
ag24
ag16
ag10
ag24
ag7
ag3
aS'.'
ag2
ag24
ag16
ag2
ag24
ag16
ag17
aS'.'
ag8
ag24
ag9
ag9
ag19
ag24
ag17
aS'.'
ag8
ag24
ag5
ag5
ag18
ag24
ag3
aS'.'
ag15
ag24
ag17
ag22
ag10
ag24
ag7
aS'.'
ag15
ag24
ag15
ag24
ag17
ag22
ag16
aS'.'
ag15
ag24
ag13
ag15
ag24
ag17
ag16
aS'.'
ag18
ag24
ag3
ag22
ag10
ag24
ag7
aS'.'
ag19
ag24
ag2
ag24
ag16
ag22
ag17
aS'.'
ag8
ag24
ag20
ag10
ag24
ag5
ag12
aS'.'
ag15
ag24
ag16
ag13
ag11
ag24
ag9
aS'.'
ag2
ag24
ag3
ag22
ag19
ag24
ag17
aS'.'
ag8
ag24
ag20
ag8
ag24
ag9
ag12
aS'.'
ag11
ag24
ag12
ag5
ag8
ag24
ag12
aS'.'
ag19
ag24
ag3
ag23
ag15
ag24
ag17
aS'.'
ag10
ag24
ag20
ag2
ag24
ag13
ag12
aS'.'
ag10
ag24
ag5
ag21
ag19
ag24
ag17
aS'.'
ag19
ag24
ag22
ag8
ag24
ag9
ag3
aS'.'
ag2
ag24
ag23
ag18
ag24
ag17
ag17
aS'.'
ag18
ag24
ag22
ag15
ag24
ag3
ag16
aS'.'
ag18
ag24
ag2
ag24
ag3
ag23
ag16
aS'.'
ag15
ag24
ag16
ag18
ag24
ag16
ag17
aS'.'
ag11
ag24
ag9
ag11
ag24
ag9
ag12
aS'.'
ag15
ag24
ag16
ag15
ag24
ag13
ag17
aS'.'
ag10
ag24
ag5
ag5
ag14
ag24
ag12
aS'.'
ag8
ag24
ag5
ag21
ag18
ag24
ag3
aS'.'
ag19
ag24
ag15
ag24
ag16
ag22
ag17
aS'.'
ag10
ag24
ag20
ag18
ag24
ag17
ag7
aS'.'
ag11
ag24
ag21
ag15
ag24
ag13
ag12
aS'.'
ag15
ag24
ag19
ag24
ag13
ag23
ag17
aS'.'
ag11
ag24
ag5
ag15
ag24
ag17
ag5
aS'.'
ag19
ag24
ag14
ag24
ag12
ag21
ag16
aS'.'
ag14
ag24
ag9
ag14
ag24
ag5
ag12
aS'.'
ag14
ag24
ag18
ag24
ag3
ag22
ag9
aS'.'
ag18
ag24
ag17
ag22
ag8
ag24
ag9
aS'.'
ag10
ag24
ag7
ag20
ag2
ag24
ag16
aS'.'
ag19
ag24
ag16
ag8
ag24
ag7
ag16
aS'.'
ag11
ag24
ag12
ag20
ag2
ag24
ag16
aS'.'
ag19
ag24
ag8
ag24
ag5
ag20
ag3
aS'.'
ag2
ag24
ag22
ag15
ag24
ag17
ag16
aS'.'
ag11
ag24
ag12
ag20
ag11
ag24
ag7
aS'.'
ag2
ag24
ag17
ag16
ag8
ag24
ag7
aS'.'
ag19
ag24
ag3
ag13
ag14
ag24
ag5
aS'.'
ag15
ag24
ag16
ag15
ag24
ag13
ag16
aS'.'
ag11
ag24
ag9
ag21
ag14
ag24
ag12
aS'.'
ag2
ag24
ag17
ag13
ag11
ag24
ag5
aS'.'
ag2
ag24
ag3
ag16
ag15
ag24
ag13
aS'.'
ag2
ag24
ag13
ag22
ag14
ag24
ag5
aS'.'
ag8
ag24
ag5
ag15
ag24
ag13
ag12
aS'.'
ag11
ag24
ag21
ag11
ag24
ag12
ag12
aS'.'
ag18
ag24
ag10
ag24
ag12
ag20
ag13
aS'.'
ag18
ag24
ag14
ag24
ag12
ag20
ag3
aS'.'
ag10
ag24
ag12
ag21
ag10
ag24
ag9
aS'.'
ag14
ag24
ag19
ag24
ag16
ag23
ag7
aS'.'
ag19
ag24
ag13
ag15
ag24
ag16
ag17
aS'.'
ag18
ag24
ag13
ag23
ag11
ag24
ag12
aS'.'
ag11
ag24
ag8
ag24
ag7
ag20
ag9
aS'.'
ag19
ag24
ag8
ag24
ag9
ag21
ag13
aS'.'
ag11
ag24
ag5
ag18
ag24
ag16
ag12
aS'.'
ag15
ag24
ag13
ag22
ag18
ag24
ag13
aS'.'
ag15
ag24
ag10
ag24
ag12
ag20
ag3
aS'.'
ag11
ag24
ag9
ag21
ag2
ag24
ag3
aS'.'
ag15
ag24
ag13
ag14
ag24
ag12
ag13
aS'.'
ag15
ag24
ag10
ag24
ag5
ag21
ag16
aS'.'
ag10
ag24
ag11
ag24
ag9
ag20
ag12
aS'.'
ag15
ag24
ag3
ag16
ag10
ag24
ag5
aS'.'
ag15
ag24
ag23
ag2
ag24
ag17
ag13
aS'.'
ag10
ag24
ag9
ag15
ag24
ag3
ag12
aS'.'
ag11
ag24
ag7
ag20
ag11
ag24
ag7
aS'.'
ag15
ag24
ag23
ag11
ag24
ag12
ag13
aS'.'
ag2
ag24
ag2
ag24
ag17
ag22
ag13
aS'.'
ag19
ag24
ag3
ag16
ag11
ag24
ag9
aS'.'
ag11
ag24
ag5
ag5
ag10
ag24
ag5
aS'.'
ag19
ag24
ag3
ag13
ag10
ag24
ag5
aS'.'
ag15
ag24
ag16
ag14
ag24
ag12
ag3
aS'.'
ag18
ag24
ag22
ag2
ag24
ag13
ag17
aS'.'
ag8
ag24
ag21
ag8
ag24
ag5
ag12
aS'.'
ag15
ag24
ag19
ag24
ag17
ag22
ag16
aS'.'
ag19
ag24
ag23
ag11
ag24
ag5
ag16
aS'.'
ag10
ag24
ag18
ag24
ag16
ag22
ag12
aS'.'
ag19
ag24
ag13
ag22
ag10
ag24
ag7
aS'.'
ag15
ag24
ag15
ag24
ag13
ag22
ag13
aS'.'
ag2
ag24
ag15
ag24
ag13
ag22
ag16
aS'.'
ag14
ag24
ag10
ag24
ag12
ag21
ag12
aS'.'
ag11
ag24
ag5
ag10
ag24
ag7
ag5
aS'.'
ag8
ag24
ag20
ag19
ag24
ag13
ag7
aS'.'
ag18
ag24
ag14
ag24
ag5
ag20
ag16
aS'.'
ag15
ag24
ag23
ag19
ag24
ag17
ag17
aS'.'
ag15
ag24
ag15
ag24
ag3
ag22
ag16
aS'.'
ag8
ag24
ag11
ag24
ag5
ag20
ag12
aS'.'
ag11
ag24
ag7
ag5
ag11
ag24
ag9
aS'.'
ag15
ag24
ag17
ag13
ag15
ag24
ag16
aS'.'
ag10
ag24
ag7
ag20
ag14
ag24
ag5
aS'.'
ag19
ag24
ag22
ag15
ag24
ag16
ag3
aS'.'
ag11
ag24
ag19
ag24
ag3
ag22
ag12
aS'.'
ag10
ag24
ag20
ag18
ag24
ag16
ag12
aS'.'
ag15
ag24
ag17
ag13
ag18
ag24
ag17
aS'.'
ag14
ag24
ag7
ag21
ag10
ag24
ag7
aS'.'
ag2
ag24
ag13
ag18
ag24
ag3
ag13
aS'.'
ag10
ag24
ag5
ag21
ag14
ag24
ag5
aS'.'
ag8
ag24
ag15
ag24
ag17
ag23
ag5
aS'.'
ag18
ag24
ag17
ag16
ag10
ag24
ag7
aS'.'
ag2
ag24
ag17
ag23
ag15
ag24
ag3
aS'.'
ag2
ag24
ag14
ag24
ag12
ag21
ag3
aS'.'
ag2
ag24
ag16
ag23
ag2
ag24
ag3
aS'.'
ag8
ag24
ag20
ag18
ag24
ag17
ag9
aS'.'
ag19
ag24
ag17
ag16
ag8
ag24
ag7
aS'.'
ag8
ag24
ag15
ag24
ag3
ag23
ag5
aS'.'
ag8
ag24
ag14
ag24
ag7
ag21
ag7
aS'.'
ag10
ag24
ag20
ag2
ag24
ag16
ag7
aS'.'
ag8
ag24
ag10
ag24
ag9
ag20
ag9
aS'.'
ag2
ag24
ag14
ag24
ag12
ag20
ag17
aS'.'
ag14
ag24
ag10
ag24
ag12
ag20
ag7
aS'.'
ag8
ag24
ag12
ag21
ag2
ag24
ag3
aS'.'
ag18
ag24
ag13
ag2
ag24
ag13
ag17
aS'.'
ag11
ag24
ag5
ag5
ag19
ag24
ag3
aS'.'
ag10
ag24
ag9
ag9
ag10
ag24
ag5
aS'.'
ag11
ag24
ag20
ag10
ag24
ag7
ag12
aS'.'
ag15
ag24
ag17
ag22
ag11
ag24
ag12
aS'.'
ag19
ag24
ag16
ag8
ag24
ag5
ag16
aS'.'
ag14
ag24
ag12
ag5
ag11
ag24
ag9
aS'.'
ag2
ag24
ag10
ag24
ag7
ag21
ag3
aS'.'
ag18
ag24
ag16
ag11
ag24
ag5
ag13
aS'.'
ag18
ag24
ag3
ag13
ag2
ag24
ag17
aS'.'
ag19
ag24
ag17
ag13
ag18
ag24
ag3
aS'.'
ag2
ag24
ag13
ag14
ag24
ag7
ag16
aS'.'
ag14
ag24
ag20
ag10
ag24
ag9
ag5
aS'.'
ag14
ag24
ag10
ag24
ag9
ag21
ag12
aS'.'
ag8
ag24
ag9
ag5
ag18
ag24
ag3
aS'.'
ag2
ag24
ag8
ag24
ag9
ag20
ag17
aS'.'
ag8
ag24
ag21
ag10
ag24
ag5
ag12
aS'.'
ag2
ag24
ag22
ag11
ag24
ag5
ag16
aS'.'
ag14
ag24
ag2
ag24
ag16
ag23
ag7
aS'.'
ag15
ag24
ag22
ag10
ag24
ag12
ag17
aS'.'
ag18
ag24
ag3
ag22
ag19
ag24
ag3
aS'.'
ag19
ag24
ag23
ag2
ag24
ag17
ag13
aS'.'
ag15
ag24
ag16
ag18
ag24
ag17
ag13
aS'.'
ag11
ag24
ag9
ag21
ag18
ag24
ag3
aS'.'
ag19
ag24
ag16
ag22
ag14
ag24
ag5
aS'.'
ag11
ag24
ag5
ag20
ag14
ag24
ag9
aS'.'
ag14
ag24
ag21
ag2
ag24
ag16
ag5
aS'.'
ag11
ag24
ag21
ag11
ag24
ag9
ag12
aS'.'
ag18
ag24
ag16
ag22
ag8
ag24
ag5
aS'.'
ag2
ag24
ag13
ag13
ag11
ag24
ag12
aS'.'
ag15
ag24
ag16
ag23
ag11
ag24
ag12
aS'.'
ag8
ag24
ag2
ag24
ag17
ag23
ag7
aS'.'
ag15
ag24
ag17
ag16
ag19
ag24
ag13
aS'.'
ag19
ag24
ag23
ag2
ag24
ag3
ag17
aS'.'
ag19
ag24
ag13
ag22
ag2
ag24
ag16
aS'.'
ag10
ag24
ag5
ag5
ag11
ag24
ag9
aS'.'
ag10
ag24
ag11
ag24
ag12
ag20
ag9
aS'.'
ag14
ag24
ag15
ag24
ag16
ag22
ag7
aS'.'
ag11
ag24
ag9
ag5
ag18
ag24
ag3
aS'.'
ag2
ag24
ag13
ag22
ag2
ag24
ag13
aS'.'
ag18
ag24
ag13
ag10
ag24
ag7
ag17
aS'.'
ag11
ag24
ag5
ag19
ag24
ag13
ag12
aS'.'
ag2
ag24
ag16
ag19
ag24
ag16
ag16
aS'.'
ag15
ag24
ag13
ag19
ag24
ag13
ag13
aS'.'
ag19
ag24
ag16
ag23
ag18
ag24
ag17
aS'.'
ag10
ag24
ag2
ag24
ag13
ag23
ag9
aS'.'
ag10
ag24
ag7
ag20
ag19
ag24
ag16
aS'.'
ag15
ag24
ag22
ag19
ag24
ag16
ag13
aS'.'
ag14
ag24
ag7
ag20
ag8
ag24
ag12
aS'.'
ag18
ag24
ag3
ag13
ag10
ag24
ag5
aS'.'
ag11
ag24
ag9
ag19
ag24
ag16
ag7
aS'.'
ag19
ag24
ag22
ag11
ag24
ag9
ag13
aS'.'
ag19
ag24
ag22
ag11
ag24
ag7
ag13
aS'.'
ag8
ag24
ag7
ag21
ag18
ag24
ag16
aS'.'
ag11
ag24
ag2
ag24
ag17
ag23
ag12
aS'.'
ag10
ag24
ag12
ag9
ag2
ag24
ag16
aS'.'
ag18
ag24
ag23
ag10
ag24
ag9
ag17
aS'.'
ag15
ag24
ag13
ag16
ag18
ag24
ag16
aS'.'
ag14
ag24
ag5
ag18
ag24
ag13
ag9
aS'.'
ag11
ag24
ag14
ag24
ag5
ag21
ag12
aS'.'
ag15
ag24
ag10
ag24
ag9
ag21
ag3
aS'.'
ag11
ag24
ag18
ag24
ag16
ag22
ag12
aS'.'
ag2
ag24
ag16
ag13
ag10
ag24
ag5
aS'.'
ag10
ag24
ag11
ag24
ag7
ag21
ag9
aS'.'
ag2
ag24
ag13
ag15
ag24
ag3
ag17
aS'.'
ag8
ag24
ag12
ag5
ag11
ag24
ag5
aS'.'
ag18
ag24
ag19
ag24
ag3
ag22
ag3
aS'.'
ag8
ag24
ag5
ag18
ag24
ag13
ag9
aS'.'
ag18
ag24
ag3
ag13
ag14
ag24
ag9
aS'.'
ag11
ag24
ag9
ag8
ag24
ag12
ag7
aS'.'
ag18
ag24
ag10
ag24
ag9
ag20
ag16
aS'.'
ag8
ag24
ag9
ag10
ag24
ag9
ag5
aS'.'
ag19
ag24
ag22
ag14
ag24
ag7
ag13
aS'.'
ag2
ag24
ag3
ag23
ag10
ag24
ag12
aS'.'
ag15
ag24
ag18
ag24
ag16
ag22
ag17
aS'.'
ag15
ag24
ag13
ag14
ag24
ag9
ag16
aS'.'
ag10
ag24
ag10
ag24
ag12
ag20
ag12
aS'.'
ag14
ag24
ag7
ag20
ag19
ag24
ag13
aS'.'
ag10
ag24
ag5
ag14
ag24
ag5
ag5
aS'.'
ag19
ag24
ag17
ag16
ag15
ag24
ag13
aS'.'
ag10
ag24
ag5
ag11
ag24
ag7
ag5
aS'.'
ag2
ag24
ag2
ag24
ag16
ag22
ag3
aS'.'
ag8
ag24
ag9
ag10
ag24
ag12
ag7
aS'.'
ag11
ag24
ag20
ag11
ag24
ag5
ag12
aS'.'
ag10
ag24
ag11
ag24
ag12
ag21
ag9
aS'.'
ag14
ag24
ag21
ag18
ag24
ag16
ag12
aS'.'
ag2
ag24
ag13
ag14
ag24
ag5
ag13
aS'.'
ag14
ag24
ag5
ag2
ag24
ag3
ag7
aS'.'
ag10
ag24
ag5
ag2
ag24
ag17
ag7
aS'.'
ag15
ag24
ag3
ag22
ag19
ag24
ag16
aS'.'
ag2
ag24
ag13
ag23
ag10
ag24
ag5
aS'.'
ag11
ag24
ag18
ag24
ag13
ag22
ag5
aS'.'
ag11
ag24
ag20
ag14
ag24
ag7
ag12
aS'.'
ag18
ag24
ag23
ag10
ag24
ag12
ag16
aS'.'
ag18
ag24
ag22
ag2
ag24
ag13
ag17
aS'.'
ag14
ag24
ag21
ag15
ag24
ag13
ag9
aS'.'
ag10
ag24
ag20
ag8
ag24
ag7
ag9
aS'.'
ag8
ag24
ag20
ag15
ag24
ag17
ag9
aS'.'
ag19
ag24
ag13
ag22
ag14
ag24
ag9
aS'.'
ag10
ag24
ag21
ag10
ag24
ag12
ag12
aS'.'
ag15
ag24
ag16
ag19
ag24
ag16
ag16
aS'.'
ag19
ag24
ag23
ag19
ag24
ag13
ag17
aS'.'
ag18
ag24
ag23
ag19
ag24
ag13
ag13
aS'.'
ag19
ag24
ag17
ag22
ag18
ag24
ag3
aS'.'
ag11
ag24
ag5
ag10
ag24
ag5
ag7
aS'.'
ag14
ag24
ag21
ag11
ag24
ag9
ag5
aS'.'
ag10
ag24
ag14
ag24
ag5
ag21
ag5
aS'.'
ag19
ag24
ag16
ag11
ag24
ag5
ag17
aS'.'
ag10
ag24
ag7
ag20
ag19
ag24
ag16
aS'.'
ag8
ag24
ag9
ag19
ag24
ag16
ag9
aS'.'
ag11
ag24
ag21
ag8
ag24
ag12
ag7
aS'.'
ag10
ag24
ag18
ag24
ag16
ag23
ag9
aS'.'
ag11
ag24
ag5
ag21
ag8
ag24
ag9
aS'.'
ag19
ag24
ag3
ag23
ag8
ag24
ag5
aS'.'
ag2
ag24
ag13
ag22
ag11
ag24
ag9
aS'.'
ag19
ag24
ag22
ag2
ag24
ag17
ag3
aS'.'
ag19
ag24
ag18
ag24
ag17
ag22
ag17
aS'.'
ag8
ag24
ag20
ag2
ag24
ag16
ag7
aS'.'
ag8
ag24
ag9
ag15
ag24
ag13
ag12
aS'.'
ag10
ag24
ag5
ag9
ag15
ag24
ag16
aS'.'
ag8
ag24
ag12
ag20
ag2
ag24
ag16
aS'.'
ag11
ag24
ag20
ag18
ag24
ag16
ag5
aS'.'
ag19
ag24
ag14
ag24
ag12
ag20
ag17
aS'.'
ag8
ag24
ag19
ag24
ag17
ag23
ag9
aS'.'
ag8
ag24
ag10
ag24
ag7
ag21
ag12
aS'.'
ag2
ag24
ag17
ag22
ag19
ag24
ag3
aS'.'
ag18
ag24
ag16
ag16
ag18
ag24
ag3
aS'.'
ag10
ag24
ag7
ag21
ag10
ag24
ag5
aS'.'
ag19
ag24
ag13
ag15
ag24
ag16
ag3
aS'.'
ag14
ag24
ag9
ag2
ag24
ag16
ag9
aS'.'
ag11
ag24
ag9
ag11
ag24
ag7
ag7
aS'.'
ag15
ag24
ag13
ag22
ag19
ag24
ag16
aS'.'
ag10
ag24
ag21
ag14
ag24
ag9
ag5
aS'.'
ag11
ag24
ag5
ag20
ag8
ag24
ag9
aS'.'
ag2
ag24
ag22
ag15
ag24
ag17
ag16
aS'.'
ag15
ag24
ag10
ag24
ag7
ag20
ag3
aS'.'
ag18
ag24
ag23
ag15
ag24
ag3
ag17
aS'.'
ag11
ag24
ag7
ag20
ag18
ag24
ag3
aS'.'
ag2
ag24
ag16
ag2
ag24
ag17
ag17
aS'.'
ag15
ag24
ag22
ag18
ag24
ag13
ag16
aS'.'
ag8
ag24
ag5
ag2
ag24
ag16
ag5
aS'.'
ag19
ag24
ag3
ag16
ag8
ag24
ag5
aS'.'
ag11
ag24
ag7
ag20
ag8
ag24
ag21
ag10
aS'.'
ag10
ag24
ag9
ag10
ag24
ag5
ag21
ag18
aS'.'
ag10
ag24
ag9
ag20
ag2
ag24
ag13
ag4
aS'.'
ag4
ag9
ag2
ag24
ag18
ag24
ag17
ag22
aS'.'
ag10
ag21
ag15
ag24
ag11
ag24
ag12
ag20
aS'.'
ag19
ag24
ag15
ag24
ag17
ag22
ag13
ag2
aS'.'
ag15
ag24
ag16
ag15
ag24
ag13
ag6
ag17
aS'.'
ag11
ag24
ag5
ag14
ag24
ag5
ag5
ag4
aS'.'
ag10
ag5
ag19
ag24
ag13
ag10
ag24
ag7
aS'.'
ag14
ag24
ag12
ag21
ag15
ag24
ag16
ag4
aS'.'
ag14
ag24
ag7
ag21
ag15
ag24
ag22
ag15
aS'.'
ag11
ag24
ag21
ag14
ag21
ag8
ag24
ag7
aS'.'
ag10
ag24
ag8
ag24
ag15
ag23
ag21
ag9
aS'.'
ag11
ag24
ag5
ag20
ag18
ag24
ag23
ag4
aS'.'
ag14
ag24
ag20
ag18
ag24
ag10
ag21
ag7
aS'.'
ag2
ag24
ag3
ag16
ag11
ag24
ag9
ag14
aS'.'
ag18
ag24
ag22
ag14
ag24
ag10
ag21
ag3
aS'.'
ag14
ag24
ag21
ag18
ag24
ag16
ag20
ag14
aS'.'
ag14
ag24
ag20
ag11
ag24
ag14
ag20
ag12
aS'.'
ag10
ag24
ag5
ag15
ag24
ag2
ag22
ag7
aS'.'
ag2
ag24
ag8
ag24
ag12
ag21
ag23
ag14
aS'.'
ag4
ag21
ag14
ag24
ag11
ag24
ag7
ag20
aS'.'
ag8
ag24
ag21
ag6
ag20
ag14
ag24
ag7
aS'.'
ag14
ag24
ag9
ag10
ag24
ag20
ag15
ag5
aS'.'
ag4
ag9
ag19
ag24
ag10
ag24
ag12
ag20
aS'.'
ag14
ag24
ag5
ag20
ag8
ag24
ag5
ag2
aS'.'
ag19
ag24
ag15
ag24
ag16
ag6
ag23
ag3
aS'.'
ag2
ag24
ag13
ag18
ag24
ag16
ag13
ag15
aS'.'
ag8
ag24
ag18
ag24
ag13
ag23
ag20
ag11
aS'.'
ag19
ag24
ag14
ag24
ag5
ag10
ag20
ag13
aS'.'
ag15
ag24
ag22
ag18
ag24
ag13
ag11
ag16
aS'.'
ag11
ag24
ag7
ag21
ag15
ag24
ag14
ag21
aS'.'
ag14
ag24
ag21
ag15
ag24
ag14
ag21
ag5
aS'.'
ag14
ag24
ag20
ag8
ag21
ag2
ag24
ag13
aS'.'
ag4
ag5
ag11
ag24
ag2
ag24
ag3
ag22
aS'.'
ag11
ag24
ag9
ag2
ag9
ag11
ag24
ag7
aS'.'
ag18
ag24
ag17
ag23
ag2
ag24
ag4
ag20
aS'.'
ag15
ag24
ag23
ag19
ag13
ag10
ag24
ag7
aS'.'
ag14
ag24
ag20
ag14
ag24
ag5
ag8
ag5
aS'.'
ag15
ag24
ag16
ag23
ag8
ag24
ag20
ag15
aS'.'
ag8
ag24
ag15
ag24
ag8
ag21
ag22
ag12
aS'.'
ag2
ag24
ag22
ag15
ag22
ag11
ag24
ag5
aS'.'
ag15
ag24
ag22
ag14
ag24
ag9
ag19
ag3
aS'.'
ag19
ag24
ag23
ag11
ag24
ag5
ag15
ag17
aS'.'
ag8
ag24
ag15
ag24
ag2
ag23
ag22
ag7
aS'.'
ag19
ag24
ag17
ag16
ag10
ag24
ag20
ag8
aS'.'
ag18
ag24
ag22
ag19
ag13
ag8
ag24
ag9
aS'.'
ag10
ag24
ag19
ag24
ag13
ag23
ag5
ag18
aS'.'
ag4
ag9
ag10
ag24
ag19
ag24
ag17
ag22
aS'.'
ag19
ag24
ag3
ag22
ag2
ag24
ag23
ag8
aS'.'
ag8
ag5
ag14
ag24
ag14
ag24
ag12
ag20
aS'.'
ag11
ag24
ag19
ag22
ag5
ag10
ag24
ag7
aS'.'
ag15
ag24
ag14
ag24
ag20
ag18
ag21
ag3
aS'.'
ag14
ag24
ag20
ag19
ag24
ag16
ag9
ag18
aS'.'
ag18
ag24
ag13
ag2
ag24
ag23
ag8
ag17
aS'.'
ag10
ag24
ag2
ag24
ag17
ag22
ag9
ag4
aS'.'
ag2
ag24
ag2
ag24
ag23
ag8
ag22
ag3
aS'.'
ag2
ag24
ag15
ag24
ag13
ag23
ag13
ag15
aS'.'
ag10
ag24
ag9
ag8
ag20
ag10
ag24
ag9
aS'.'
ag10
ag24
ag5
ag15
ag24
ag13
ag10
ag12
aS'.'
ag19
ag24
ag23
ag11
ag24
ag20
ag14
ag13
aS'.'
ag19
ag13
ag8
ag24
ag20
ag2
ag24
ag16
aS'.'
ag2
ag24
ag14
ag24
ag19
ag22
ag21
ag17
aS'.'
ag14
ag24
ag18
ag24
ag23
ag2
ag22
ag5
aS'.'
ag8
ag24
ag12
ag20
ag10
ag24
ag21
ag14
aS'.'
ag18
ag24
ag13
ag8
ag24
ag9
ag22
ag4
aS'.'
ag14
ag21
ag19
ag24
ag16
ag2
ag24
ag17
aS'.'
ag8
ag21
ag15
ag24
ag13
ag19
ag24
ag16
aS'.'
ag4
ag5
ag18
ag24
ag16
ag18
ag24
ag3
aS'.'
ag18
ag24
ag13
ag18
ag24
ag17
ag23
ag18
aS'.'
ag2
ag24
ag16
ag10
ag24
ag9
ag19
ag13
aS'.'
ag14
ag24
ag9
ag8
ag20
ag18
ag24
ag17
aS'.'
ag2
ag24
ag13
ag10
ag24
ag18
ag22
ag16
aS'.'
ag2
ag24
ag19
ag24
ag14
ag21
ag23
ag3
aS'.'
ag6
ag5
ag2
ag24
ag13
ag10
ag24
ag7
aS'.'
ag2
ag24
ag22
ag4
ag13
ag10
ag24
ag7
aS'.'
ag14
ag24
ag20
ag8
ag24
ag9
ag2
ag12
aS'.'
ag4
ag5
ag14
ag24
ag11
ag24
ag9
ag21
aS'.'
ag11
ag24
ag12
ag20
ag19
ag24
ag8
ag20
aS'.'
ag11
ag24
ag9
ag19
ag24
ag17
ag21
ag14
aS'.'
ag8
ag24
ag7
ag21
ag10
ag24
ag9
ag11
aS'.'
ag19
ag24
ag16
ag2
ag24
ag3
ag16
ag11
aS'.'
ag15
ag24
ag13
ag14
ag24
ag21
ag14
ag13
aS'.'
ag18
ag24
ag23
ag18
ag24
ag6
ag21
ag17
aS'.'
ag14
ag24
ag21
ag10
ag24
ag8
ag20
ag5
aS'.'
ag11
ag24
ag5
ag11
ag24
ag5
ag4
ag7
aS'.'
ag2
ag24
ag16
ag22
ag15
ag24
ag2
ag22
aS'.'
ag19
ag24
ag3
ag23
ag18
ag24
ag22
ag8
aS'.'
ag18
ag24
ag19
ag22
ag16
ag18
ag24
ag16
aS'.'
ag18
ag24
ag16
ag23
ag8
ag24
ag14
ag21
aS'.'
ag10
ag5
ag15
ag24
ag16
ag18
ag24
ag16
aS'.'
ag19
ag24
ag13
ag13
ag18
ag24
ag22
ag11
aS'.'
ag18
ag24
ag8
ag21
ag16
ag15
ag24
ag16
aS'.'
ag8
ag24
ag20
ag15
ag24
ag2
ag23
ag5
aS'.'
ag2
ag16
ag11
ag24
ag20
ag14
ag24
ag5
aS'.'
ag14
ag24
ag21
ag18
ag24
ag19
ag23
ag9
aS'.'
ag15
ag24
ag17
ag13
ag14
ag24
ag4
ag20
aS'.'
ag19
ag24
ag17
ag23
ag2
ag24
ag16
ag18
aS'.'
ag15
ag24
ag13
ag10
ag24
ag5
ag13
ag14
aS'.'
ag14
ag24
ag21
ag8
ag24
ag20
ag10
ag9
aS'.'
ag11
ag24
ag12
ag21
ag18
ag24
ag14
ag20
aS'.'
ag2
ag24
ag17
ag22
ag2
ag24
ag23
ag19
aS'.'
ag2
ag24
ag14
ag20
ag16
ag14
ag24
ag5
aS'.'
ag14
ag24
ag12
ag9
ag10
ag24
ag9
ag10
aS'.'
ag14
ag24
ag7
ag21
ag8
ag24
ag19
ag23
aS'.'
ag11
ag24
ag11
ag24
ag9
ag21
ag20
ag18
aS'.'
ag18
ag24
ag22
ag6
ag23
ag10
ag24
ag9
aS'.'
ag2
ag24
ag14
ag24
ag20
ag4
ag20
ag13
aS'.'
ag15
ag24
ag23
ag6
ag22
ag11
ag24
ag7
aS'.'
ag14
ag5
ag19
ag24
ag11
ag24
ag7
ag21
aS'.'
ag18
ag24
ag13
ag13
ag10
ag24
ag5
ag11
aS'.'
ag18
ag24
ag13
ag14
ag13
ag8
ag24
ag5
aS'.'
ag14
ag24
ag7
ag5
ag2
ag24
ag8
ag21
aS'.'
ag8
ag24
ag5
ag10
ag9
ag11
ag24
ag9
aS'.'
ag2
ag24
ag3
ag22
ag8
ag24
ag21
ag19
aS'.'
ag2
ag24
ag15
ag22
ag13
ag14
ag24
ag9
aS'.'
ag15
ag24
ag22
ag6
ag23
ag18
ag24
ag13
aS'.'
ag14
ag24
ag9
ag20
ag19
ag24
ag18
ag22
aS'.'
ag14
ag21
ag19
ag24
ag15
ag24
ag3
ag23
aS'.'
ag18
ag24
ag22
ag10
ag24
ag9
ag10
ag13
aS'.'
ag14
ag24
ag9
ag19
ag24
ag13
ag6
ag9
aS'.'
ag11
ag24
ag9
ag5
ag8
ag24
ag5
ag11
aS'.'
ag11
ag24
ag21
ag19
ag24
ag16
ag4
ag5
aS'.'
ag2
ag24
ag16
ag14
ag24
ag5
ag13
ag6
aS'.'
ag14
ag24
ag20
ag11
ag24
ag5
ag14
ag9
aS'.'
ag19
ag24
ag22
ag2
ag23
ag15
ag24
ag17
aS'.'
ag14
ag24
ag5
ag8
ag24
ag9
ag20
ag2
aS'.'
ag15
ag24
ag13
ag15
ag13
ag15
ag24
ag13
aS'.'
ag11
ag24
ag7
ag20
ag18
ag24
ag4
ag21
aS'.'
ag18
ag24
ag16
ag10
ag24
ag9
ag18
ag3
aS'.'
ag11
ag24
ag2
ag24
ag13
ag18
ag22
ag12
aS'.'
ag14
ag24
ag21
ag19
ag24
ag2
ag23
ag12
aS'.'
ag8
ag24
ag5
ag14
ag5
ag8
ag24
ag9
aS'.'
ag10
ag5
ag2
ag24
ag19
ag24
ag3
ag23
aS'.'
ag15
ag24
ag23
ag19
ag24
ag16
ag2
ag17
aS'.'
ag14
ag24
ag19
ag22
ag20
ag19
ag24
ag17
aS'.'
ag14
ag9
ag10
ag24
ag9
ag18
ag24
ag3
aS'.'
ag19
ag24
ag17
ag23
ag19
ag24
ag11
ag21
aS'.'
ag11
ag24
ag9
ag14
ag24
ag5
ag20
ag14
aS'.'
ag2
ag24
ag16
ag23
ag14
ag24
ag9
ag8
aS'.'
ag10
ag24
ag21
ag18
ag24
ag16
ag8
ag12
aS'.'
ag2
ag24
ag17
ag23
ag8
ag24
ag5
ag10
aS'.'
ag10
ag24
ag21
ag2
ag24
ag13
ag21
ag6
aS'.'
ag8
ag24
ag9
ag10
ag24
ag9
ag21
ag18
aS'.'
ag11
ag24
ag9
ag21
ag2
ag24
ag13
ag10
aS'.'
ag19
ag24
ag13
ag18
ag13
ag15
ag24
ag3
aS'.'
ag18
ag24
ag16
ag8
ag13
ag18
ag24
ag3
aS'.'
ag15
ag24
ag23
ag10
ag24
ag20
ag2
ag17
aS'.'
ag8
ag24
ag10
ag24
ag9
ag2
ag21
ag9
aS'.'
ag11
ag24
ag5
ag18
ag24
ag22
ag10
ag12
aS'.'
ag6
ag20
ag8
ag24
ag5
ag8
ag24
ag12
aS'.'
ag18
ag22
ag11
ag24
ag9
ag11
ag24
ag7
aS'.'
ag14
ag20
ag8
ag24
ag18
ag24
ag13
ag23
aS'.'
ag2
ag24
ag13
ag4
ag16
ag18
ag24
ag16
aS'.'
ag2
ag24
ag22
ag11
ag24
ag5
ag23
ag19
aS'.'
ag19
ag24
ag17
ag23
ag18
ag24
ag13
ag15
aS'.'
ag10
ag24
ag9
ag20
ag14
ag24
ag5
ag11
aS'.'
ag15
ag13
ag19
ag24
ag16
ag18
ag24
ag17
aS'.'
ag11
ag9
ag19
ag24
ag13
ag18
ag24
ag17
aS'.'
ag6
ag5
ag14
ag24
ag14
ag24
ag7
ag20
aS'.'
ag19
ag24
ag2
ag24
ag16
ag14
ag23
ag3
aS'.'
ag10
ag24
ag9
ag2
ag24
ag13
ag5
ag4
aS'.'
ag18
ag24
ag16
ag19
ag16
ag19
ag24
ag13
aS'.'
ag2
ag24
ag11
ag21
ag23
ag19
ag24
ag16
aS'.'
ag2
ag24
ag23
ag2
ag24
ag3
ag22
ag19
aS'.'
ag15
ag24
ag13
ag23
ag18
ag24
ag6
ag20
aS'.'
ag15
ag24
ag16
ag10
ag24
ag5
ag2
ag17
aS'.'
ag2
ag24
ag3
ag23
ag10
ag24
ag9
ag4
aS'.'
ag2
ag24
ag23
ag6
ag23
ag19
ag24
ag17
aS'.'
ag14
ag24
ag5
ag19
ag24
ag19
ag22
ag7
aS'.'
ag18
ag24
ag16
ag6
ag13
ag14
ag24
ag9
aS'.'
ag8
ag24
ag20
ag19
ag9
ag11
ag24
ag7
aS'.'
ag15
ag13
ag8
ag24
ag9
ag8
ag24
ag9
aS'.'
ag18
ag24
ag13
ag10
ag23
ag19
ag24
ag3
aS'.'
ag14
ag24
ag9
ag9
ag10
ag24
ag19
ag23
aS'.'
ag19
ag13
ag8
ag24
ag5
ag8
ag24
ag5
aS'.'
ag15
ag24
ag15
ag24
ag16
ag6
ag23
ag3
aS'.'
ag14
ag24
ag20
ag10
ag24
ag4
ag21
ag7
aS'.'
ag2
ag24
ag3
ag16
ag2
ag24
ag13
ag10
aS'.'
ag2
ag16
ag10
ag24
ag20
ag10
ag24
ag7
aS'.'
ag2
ag24
ag16
ag10
ag24
ag15
ag22
ag3
aS'.'
ag2
ag24
ag13
ag19
ag24
ag16
ag13
ag18
aS'.'
ag8
ag24
ag9
ag9
ag14
ag24
ag8
ag21
aS'.'
ag10
ag24
ag11
ag24
ag5
ag19
ag20
ag12
aS'.'
ag19
ag24
ag23
ag14
ag24
ag21
ag19
ag3
aS'.'
ag10
ag24
ag9
ag18
ag24
ag23
ag10
ag7
aS'.'
ag14
ag24
ag19
ag24
ag13
ag23
ag9
ag18
aS'.'
ag18
ag23
ag11
ag24
ag21
ag14
ag24
ag5
aS'.'
ag19
ag24
ag19
ag24
ag13
ag2
ag23
ag3
aS'.'
ag15
ag24
ag2
ag24
ag15
ag23
ag22
ag3
aS'.'
ag19
ag24
ag18
ag24
ag14
ag21
ag23
ag16
aS'.'
ag2
ag22
ag2
ag24
ag13
ag19
ag24
ag17
aS'.'
ag14
ag24
ag9
ag9
ag11
ag24
ag9
ag18
aS'.'
ag18
ag24
ag11
ag21
ag22
ag8
ag24
ag12
aS'.'
ag18
ag24
ag23
ag19
ag24
ag16
ag4
ag3
aS'.'
ag8
ag24
ag7
ag20
ag2
ag24
ag13
ag19
aS'.'
ag15
ag22
ag8
ag24
ag15
ag24
ag17
ag22
aS'.'
ag11
ag24
ag5
ag14
ag24
ag21
ag19
ag7
aS'.'
ag18
ag24
ag16
ag16
ag19
ag24
ag16
ag14
aS'.'
ag8
ag24
ag20
ag2
ag24
ag13
ag9
ag2
aS'.'
ag19
ag24
ag16
ag10
ag16
ag2
ag24
ag13
aS'.'
ag10
ag24
ag19
ag23
ag5
ag14
ag24
ag5
aS'.'
ag8
ag24
ag5
ag20
ag18
ag24
ag13
ag8
aS'.'
ag2
ag24
ag13
ag8
ag24
ag5
ag4
ag17
aS'.'
ag18
ag22
ag8
ag24
ag9
ag19
ag24
ag16
aS'.'
ag15
ag22
ag18
ag24
ag16
ag8
ag24
ag9
aS'.'
ag15
ag24
ag18
ag24
ag17
ag22
ag22
ag14
aS'.'
ag10
ag24
ag20
ag10
ag24
ag7
ag21
ag6
aS'.'
ag19
ag24
ag23
ag14
ag24
ag21
ag18
ag13
aS'.'
ag10
ag24
ag5
ag21
ag18
ag24
ag19
ag23
aS'.'
ag10
ag24
ag11
ag24
ag18
ag23
ag20
ag7
aS'.'
ag14
ag24
ag20
ag8
ag24
ag20
ag14
ag5
aS'.'
ag10
ag24
ag2
ag24
ag14
ag20
ag22
ag5
aS'.'
ag10
ag24
ag5
ag2
ag24
ag16
ag5
ag19
aS'.'
ag11
ag24
ag21
ag11
ag24
ag9
ag5
ag15
aS'.'
ag15
ag23
ag18
ag24
ag22
ag8
ag24
ag12
aS'.'
ag14
ag24
ag9
ag14
ag24
ag9
ag5
ag15
aS'.'
ag11
ag24
ag7
ag5
ag14
ag24
ag5
ag8
aS'.'
ag8
ag24
ag15
ag24
ag22
ag19
ag23
ag5
aS'.'
ag11
ag5
ag18
ag24
ag19
ag24
ag13
ag23
aS'.'
ag18
ag24
ag18
ag24
ag22
ag14
ag22
ag16
aS'.'
ag2
ag24
ag16
ag16
ag11
ag24
ag11
ag20
aS'.'
ag10
ag24
ag21
ag15
ag20
ag8
ag24
ag5
aS'.'
ag18
ag24
ag22
ag11
ag24
ag9
ag13
ag15
aS'.'
ag19
ag24
ag22
ag18
ag24
ag13
ag8
ag16
aS'.'
ag19
ag24
ag22
ag11
ag24
ag15
ag22
ag16
aS'.'
ag18
ag24
ag2
ag24
ag13
ag22
ag16
ag4
aS'.'
ag11
ag24
ag2
ag24
ag19
ag22
ag23
ag5
aS'.'
ag14
ag24
ag5
ag14
ag24
ag20
ag2
ag9
aS'.'
ag19
ag24
ag13
ag22
ag11
ag24
ag20
ag2
aS'.'
ag19
ag24
ag18
ag24
ag22
ag11
ag22
ag16
aS'.'
ag2
ag24
ag22
ag6
ag22
ag10
ag24
ag5
aS'.'
ag11
ag24
ag5
ag14
ag24
ag12
ag21
ag8
aS'.'
ag14
ag20
ag15
ag24
ag16
ag10
ag24
ag9
aS'.'
ag11
ag5
ag19
ag24
ag22
ag10
ag24
ag9
aS'.'
ag14
ag24
ag9
ag20
ag15
ag24
ag23
ag15
aS'.'
ag19
ag24
ag18
ag24
ag19
ag23
ag23
ag16
aS'.'
ag14
ag24
ag9
ag18
ag24
ag13
ag4
ag9
aS'.'
ag6
ag9
ag18
ag24
ag11
ag24
ag7
ag20
aS'.'
ag11
ag21
ag10
ag24
ag19
ag24
ag17
ag22
aS'.'
ag10
ag20
ag19
ag24
ag23
ag14
ag24
ag7
aS'.'
ag2
ag24
ag10
ag24
ag10
ag21
ag21
ag13
aS'.'
ag19
ag24
ag14
ag24
ag18
ag22
ag20
ag16
aS'.'
ag18
ag13
ag11
ag24
ag21
ag8
ag24
ag7
aS'.'
ag10
ag24
ag20
ag19
ag5
ag8
ag24
ag7
aS'.'
ag14
ag24
ag19
ag24
ag16
ag4
ag22
ag7
aS'.'
ag19
ag23
ag15
ag24
ag13
ag14
ag24
ag7
aS'.'
ag15
ag16
ag14
ag24
ag2
ag24
ag13
ag23
aS'.'
ag2
ag24
ag13
ag15
ag24
ag13
ag18
ag13
aS'.'
ag11
ag24
ag9
ag9
ag19
ag24
ag15
ag23
aS'.'
ag8
ag24
ag7
ag9
ag2
ag24
ag4
ag20
aS'.'
ag19
ag24
ag23
ag2
ag23
ag14
ag24
ag9
aS'.'
ag19
ag24
ag16
ag10
ag24
ag5
ag13
ag4
aS'.'
ag8
ag24
ag7
ag20
ag8
ag24
ag20
ag10
aS'.'
ag10
ag20
ag15
ag24
ag16
ag15
ag24
ag17
aS'.'
ag15
ag24
ag23
ag2
ag24
ag22
ag19
ag17
aS'.'
ag10
ag24
ag5
ag15
ag24
ag13
ag8
ag9
aS'.'
ag8
ag24
ag11
ag24
ag9
ag11
ag20
ag9
aS'.'
ag11
ag24
ag9
ag2
ag24
ag16
ag6
ag12
aS'.'
ag15
ag22
ag11
ag24
ag9
ag14
ag24
ag5
aS'.'
ag8
ag24
ag5
ag2
ag24
ag17
ag21
ag19
aS'.'
ag2
ag24
ag22
ag19
ag24
ag3
ag13
ag19
aS'.'
ag8
ag24
ag5
ag8
ag5
ag19
ag24
ag17
aS'.'
ag18
ag24
ag13
ag16
ag10
ag24
ag21
ag10
aS'.'
ag11
ag24
ag8
ag24
ag20
ag2
ag21
ag9
aS'.'
ag15
ag24
ag17
ag13
ag10
ag24
ag5
ag2
aS'.'
ag18
ag24
ag16
ag8
ag24
ag9
ag10
ag13
aS'.'
ag19
ag24
ag16
ag19
ag24
ag23
ag14
ag3
aS'.'
ag10
ag24
ag4
ag20
ag9
ag2
ag24
ag17
aS'.'
ag2
ag24
ag18
ag24
ag13
ag19
ag22
ag17
aS'.'
ag15
ag24
ag13
ag8
ag24
ag7
ag22
ag6
aS'.'
ag10
ag24
ag9
ag9
ag18
ag24
ag23
ag6
aS'.'
ag14
ag24
ag19
ag24
ag22
ag15
ag23
ag12
aS'.'
ag15
ag24
ag13
ag10
ag24
ag7
ag13
ag15
aS'.'
ag10
ag24
ag20
ag19
ag24
ag22
ag15
ag9
aS'.'
ag8
ag24
ag15
ag24
ag17
ag22
ag5
ag15
aS'.'
ag15
ag24
ag19
ag22
ag22
ag2
ag24
ag13
aS'.'
ag2
ag24
ag13
ag22
ag10
ag24
ag9
ag2
aS'.'
ag19
ag24
ag16
ag6
ag16
ag14
ag24
ag7
aS'.'
ag10
ag24
ag20
ag18
ag24
ag6
ag20
ag7
aS'.'
ag18
ag24
ag17
ag16
ag8
ag24
ag21
ag6
aS'.'
ag10
ag24
ag5
ag8
ag24
ag5
ag21
ag6
aS'.'
ag18
ag24
ag16
ag4
ag16
ag18
ag24
ag16
aS'.'
ag10
ag24
ag20
ag14
ag24
ag9
ag21
ag8
aS'.'
ag2
ag22
ag15
ag24
ag16
ag18
ag24
ag3
aS'.'
ag18
ag24
ag6
ag21
ag13
ag11
ag24
ag7
aS'.'
ag10
ag24
ag9
ag8
ag24
ag21
ag19
ag9
aS'.'
ag19
ag22
ag8
ag24
ag8
ag24
ag5
ag21
aS'.'
ag14
ag9
ag11
ag24
ag19
ag24
ag17
ag23
aS'.'
ag8
ag24
ag14
ag24
ag19
ag23
ag20
ag5
aS'.'
ag2
ag24
ag3
ag13
ag15
ag24
ag13
ag10
aS'.'
ag19
ag24
ag17
ag22
ag10
ag24
ag20
ag2
aS'.'
ag2
ag24
ag16
ag4
ag22
ag19
ag24
ag17
aS'.'
ag4
ag20
ag19
ag24
ag13
ag19
ag24
ag16
aS'.'
ag8
ag24
ag5
ag21
ag2
ag24
ag14
ag21
aS'.'
ag8
ag24
ag4
ag21
ag21
ag2
ag24
ag17
aS'.'
ag14
ag24
ag14
ag24
ag12
ag21
ag5
ag6
aS'.'
ag15
ag24
ag13
ag22
ag11
ag24
ag9
ag8
aS'.'
ag15
ag24
ag16
ag18
ag24
ag16
ag19
ag3
aS'.'
ag2
ag24
ag3
ag22
ag11
ag24
ag5
ag4
aS'.'
ag10
ag24
ag9
ag10
ag24
ag9
ag19
ag7
aS'.'
ag18
ag24
ag16
ag22
ag14
ag24
ag6
ag20
aS'.'
ag19
ag24
ag22
ag4
ag16
ag10
ag24
ag9
aS'.'
ag15
ag24
ag11
ag24
ag9
ag19
ag20
ag3
aS'.'
ag14
ag24
ag19
ag23
ag9
ag8
ag24
ag9
aS'.'
ag18
ag16
ag18
ag24
ag15
ag24
ag13
ag23
aS'.'
ag18
ag24
ag17
ag16
ag19
ag24
ag13
ag10
aS'.'
ag11
ag5
ag14
ag24
ag15
ag24
ag17
ag23
aS'.'
ag2
ag24
ag13
ag18
ag24
ag16
ag22
ag15
aS'.'
ag8
ag24
ag7
ag20
ag8
ag24
ag19
ag22
aS'.'
ag11
ag24
ag8
ag24
ag21
ag19
ag20
ag7
aS'.'
ag11
ag24
ag5
ag8
ag5
ag18
ag24
ag17
aS'.'
ag18
ag24
ag13
ag19
ag24
ag16
ag19
ag16
aS'.'
ag15
ag13
ag11
ag24
ag15
ag24
ag13
ag23
aS'.'
ag8
ag24
ag5
ag15
ag24
ag6
ag20
ag5
aS'.'
ag15
ag23
ag2
ag24
ag16
ag2
ag24
ag17
aS'.'
ag2
ag24
ag16
ag23
ag2
ag24
ag19
ag22
aS'.'
ag10
ag24
ag9
ag8
ag24
ag14
ag21
ag9
aS'.'
ag15
ag24
ag23
ag2
ag24
ag13
ag11
ag3
aS'.'
ag2
ag24
ag13
ag15
ag24
ag22
ag10
ag17
aS'.'
ag2
ag24
ag13
ag22
ag19
ag24
ag2
ag22
aS'.'
ag18
ag24
ag16
ag19
ag24
ag13
ag10
ag13
aS'.'
ag18
ag23
ag2
ag24
ag22
ag2
ag24
ag17
aS'.'
ag14
ag24
ag21
ag14
ag20
ag18
ag24
ag13
aS'.'
ag4
ag21
ag15
ag24
ag23
ag15
ag24
ag17
aS'.'
ag15
ag24
ag22
ag15
ag24
ag2
ag22
ag16
aS'.'
ag18
ag24
ag14
ag21
ag13
ag10
ag24
ag7
aS'.'
ag19
ag24
ag16
ag15
ag24
ag17
ag13
ag11
aS'.'
ag15
ag24
ag10
ag24
ag12
ag20
ag22
ag2
aS'.'
ag8
ag24
ag5
ag21
ag18
ag24
ag13
ag19
aS'.'
ag8
ag24
ag21
ag15
ag24
ag23
ag19
ag7
aS'.'
ag15
ag24
ag23
ag19
ag24
ag16
ag15
ag13
aS'.'
ag14
ag5
ag18
ag24
ag19
ag24
ag13
ag22
aS'.'
ag15
ag24
ag13
ag11
ag24
ag12
ag23
ag18
aS'.'
ag11
ag24
ag12
ag20
ag11
ag24
ag5
ag15
aS'.'
ag18
ag13
ag11
ag24
ag15
ag24
ag3
ag23
aS'.'
ag18
ag24
ag13
ag14
ag24
ag21
ag11
ag16
aS'.'
ag15
ag23
ag19
ag24
ag13
ag19
ag24
ag13
aS'.'
ag8
ag24
ag20
ag15
ag24
ag4
ag21
ag9
aS'.'
ag6
ag9
ag18
ag24
ag22
ag2
ag24
ag17
aS'.'
ag18
ag24
ag13
ag16
ag2
ag24
ag23
ag10
aS'.'
ag14
ag24
ag5
ag21
ag10
ag24
ag6
ag21
aS'.'
ag8
ag24
ag14
ag24
ag20
ag19
ag20
ag12
aS'.'
ag15
ag24
ag17
ag13
ag11
ag24
ag9
ag10
aS'.'
ag19
ag24
ag11
ag24
ag7
ag21
ag22
ag8
aS'.'
ag19
ag24
ag23
ag19
ag23
ag11
ag24
ag9
aS'.'
ag11
ag24
ag9
ag14
ag24
ag5
ag9
ag18
aS'.'
ag10
ag24
ag2
ag24
ag23
ag8
ag22
ag9
aS'.'
ag2
ag24
ag13
ag2
ag24
ag22
ag15
ag3
aS'.'
ag18
ag24
ag22
ag10
ag24
ag12
ag23
ag8
aS'.'
ag14
ag24
ag18
ag24
ag17
ag23
ag9
ag8
aS'.'
ag14
ag24
ag20
ag8
ag24
ag14
ag20
ag9
aS'.'
ag11
ag24
ag9
ag10
ag5
ag18
ag24
ag3
aS'.'
ag19
ag24
ag16
ag15
ag24
ag16
ag13
ag6
aS'.'
ag15
ag24
ag16
ag8
ag24
ag9
ag11
ag3
aS'.'
ag11
ag24
ag10
ag24
ag5
ag21
ag21
ag8
aS'.'
ag18
ag24
ag22
ag18
ag16
ag19
ag24
ag13
aS'.'
ag10
ag24
ag12
ag21
ag19
ag24
ag22
ag18
aS'.'
ag2
ag24
ag13
ag11
ag24
ag18
ag22
ag16
aS'.'
ag11
ag24
ag7
ag9
ag10
ag24
ag20
ag2
aS'.'
ag15
ag24
ag16
ag6
ag23
ag18
ag24
ag16
aS'.'
ag14
ag5
ag10
ag24
ag20
ag15
ag24
ag3
aS'.'
ag8
ag24
ag5
ag14
ag21
ag19
ag24
ag13
aS'.'
ag14
ag24
ag7
ag21
ag10
ag24
ag8
ag20
aS'.'
ag11
ag24
ag8
ag24
ag5
ag20
ag9
ag4
aS'.'
ag10
ag24
ag21
ag8
ag24
ag7
ag9
ag10
aS'.'
ag2
ag24
ag22
ag10
ag24
ag9
ag18
ag13
aS'.'
ag19
ag24
ag23
ag15
ag24
ag14
ag21
ag17
aS'.'
ag19
ag24
ag16
ag13
ag10
ag24
ag19
ag22
aS'.'
ag2
ag24
ag19
ag24
ag16
ag14
ag22
ag13
aS'.'
ag19
ag23
ag11
ag24
ag10
ag24
ag7
ag21
aS'.'
ag11
ag24
ag5
ag14
ag24
ag7
ag20
ag4
aS'.'
ag10
ag24
ag7
ag5
ag18
ag24
ag23
ag2
aS'.'
ag11
ag24
ag12
ag5
ag15
ag24
ag22
ag6
aS'.'
ag10
ag24
ag20
ag11
ag5
ag2
ag24
ag16
aS'.'
ag11
ag24
ag21
ag8
ag24
ag5
ag20
ag10
aS'.'
ag2
ag24
ag14
ag24
ag7
ag21
ag13
ag8
aS'.'
ag18
ag22
ag15
ag24
ag16
ag2
ag24
ag16
aS'.'
ag2
ag24
ag22
ag11
ag24
ag9
ag23
ag6
aS'.'
ag2
ag24
ag22
ag8
ag24
ag9
ag13
ag4
aS'.'
ag2
ag16
ag10
ag24
ag21
ag18
ag24
ag3
aS'.'
ag8
ag24
ag2
ag24
ag3
ag23
ag21
ag15
aS'.'
ag19
ag24
ag13
ag22
ag8
ag24
ag21
ag19
aS'.'
ag4
ag5
ag10
ag24
ag5
ag19
ag24
ag3
aS'.'
ag18
ag24
ag2
ag24
ag14
ag21
ag22
ag13
aS'.'
ag4
ag9
ag19
ag24
ag19
ag24
ag13
ag23
aS'.'
ag8
ag5
ag18
ag24
ag10
ag24
ag9
ag20
aS'.'
ag2
ag24
ag16
ag2
ag22
ag19
ag24
ag13
aS'.'
ag19
ag24
ag13
ag19
ag22
ag10
ag24
ag5
aS'.'
ag19
ag24
ag23
ag18
ag24
ag16
ag2
ag17
aS'.'
ag18
ag24
ag13
ag22
ag15
ag24
ag11
ag21
aS'.'
ag18
ag24
ag23
ag18
ag24
ag3
ag13
ag15
aS'.'
ag10
ag24
ag5
ag19
ag24
ag22
ag4
ag9
aS'.'
ag18
ag24
ag23
ag10
ag13
ag8
ag24
ag12
aS'.'
ag15
ag24
ag15
ag24
ag16
ag22
ag16
ag4
aS'.'
ag14
ag24
ag5
ag9
ag10
ag24
ag9
ag19
aS'.'
ag18
ag24
ag13
ag15
ag24
ag11
ag21
ag13
aS'.'
ag10
ag21
ag18
ag24
ag14
ag24
ag9
ag20
aS'.'
ag18
ag24
ag16
ag2
ag24
ag17
ag13
ag14
aS'.'
ag10
ag24
ag21
ag15
ag24
ag19
ag22
ag12
aS'.'
ag11
ag24
ag5
ag19
ag24
ag3
ag20
ag14
aS'.'
ag2
ag24
ag3
ag22
ag11
ag24
ag8
ag20
aS'.'
ag18
ag24
ag13
ag15
ag24
ag22
ag4
ag3
aS'.'
ag15
ag24
ag18
ag24
ag8
ag21
ag22
ag13
aS'.'
ag11
ag24
ag12
ag9
ag11
ag24
ag6
ag20
aS'.'
ag8
ag20
ag18
ag24
ag18
ag24
ag17
ag22
aS'.'
ag2
ag23
ag14
ag24
ag5
ag14
ag24
ag12
aS'.'
ag18
ag16
ag11
ag24
ag21
ag19
ag24
ag13
aS'.'
ag11
ag24
ag18
ag24
ag23
ag15
ag23
ag7
aS'.'
ag14
ag24
ag20
ag2
ag20
ag14
ag24
ag9
aS'.'
ag11
ag5
ag11
ag24
ag15
ag24
ag3
ag23
aS'.'
ag11
ag24
ag9
ag15
ag24
ag2
ag22
ag12
aS'.'
ag6
ag9
ag8
ag24
ag21
ag19
ag24
ag17
aS'.'
ag11
ag24
ag9
ag2
ag24
ag6
ag20
ag5
aS'.'
ag11
ag24
ag10
ag21
ag21
ag10
ag24
ag5
aS'.'
ag15
ag24
ag2
ag22
ag13
ag15
ag24
ag17
aS'.'
ag14
ag24
ag19
ag24
ag17
ag23
ag5
ag15
aS'.'
ag10
ag24
ag5
ag5
ag14
ag24
ag14
ag21
aS'.'
ag15
ag24
ag13
ag10
ag24
ag18
ag22
ag17
aS'.'
ag18
ag24
ag13
ag2
ag24
ag11
ag21
ag13
aS'.'
ag11
ag24
ag9
ag14
ag24
ag21
ag14
ag7
aS'.'
ag15
ag24
ag23
ag19
ag24
ag13
ag6
ag13
aS'.'
ag19
ag22
ag14
ag24
ag9
ag15
ag24
ag3
aS'.'
ag15
ag22
ag2
ag24
ag22
ag8
ag24
ag12
aS'.'
ag10
ag24
ag5
ag2
ag24
ag17
ag21
ag10
aS'.'
ag2
ag24
ag19
ag24
ag22
ag8
ag23
ag3
aS'.'
ag10
ag24
ag12
ag20
ag18
ag24
ag16
ag6
aS'.'
ag19
ag16
ag14
ag24
ag18
ag24
ag3
ag22
aS'.'
ag18
ag23
ag11
ag24
ag9
ag10
ag24
ag5
aS'.'
ag10
ag24
ag7
ag21
ag11
ag24
ag5
ag4
aS'.'
ag15
ag24
ag13
ag8
ag24
ag5
ag15
ag17
aS'.'
ag10
ag24
ag5
ag20
ag15
ag24
ag23
ag19
aS'.'
ag2
ag24
ag22
ag8
ag24
ag7
ag23
ag11
aS'.'
ag14
ag24
ag21
ag19
ag21
ag11
ag24
ag7
aS'.'
ag15
ag24
ag16
ag16
ag8
ag24
ag6
ag21
aS'.'
ag11
ag24
ag9
ag21
ag2
ag24
ag13
ag4
aS'.'
ag18
ag24
ag16
ag18
ag24
ag17
ag16
ag18
aS'.'
ag14
ag24
ag20
ag15
ag24
ag14
ag20
ag7
aS'.'
ag6
ag9
ag11
ag24
ag21
ag15
ag24
ag16
aS'.'
ag2
ag24
ag16
ag11
ag24
ag5
ag14
ag17
aS'.'
ag8
ag24
ag11
ag24
ag5
ag15
ag20
ag7
aS'.'
ag8
ag24
ag20
ag8
ag24
ag9
ag9
ag14
aS'.'
ag11
ag24
ag21
ag19
ag24
ag16
ag15
ag9
aS'.'
ag14
ag24
ag2
ag24
ag22
ag11
ag23
ag5
aS'.'
ag15
ag23
ag10
ag24
ag9
ag14
ag24
ag5
aS'.'
ag2
ag24
ag8
ag24
ag6
ag20
ag20
ag3
aS'.'
ag4
ag21
ag18
ag24
ag19
ag24
ag16
ag23
aS'.'
ag19
ag23
ag18
ag24
ag22
ag10
ag24
ag5
aS'.'
ag15
ag24
ag15
ag24
ag16
ag22
ag22
ag19
aS'.'
ag19
ag24
ag23
ag14
ag24
ag12
ag23
ag6
aS'.'
ag14
ag21
ag14
ag24
ag11
ag24
ag9
ag20
aS'.'
ag8
ag24
ag10
ag24
ag20
ag4
ag21
ag12
aS'.'
ag15
ag24
ag13
ag18
ag24
ag13
ag2
ag17
aS'.'
ag15
ag13
ag2
ag24
ag13
ag10
ag24
ag9
aS'.'
ag14
ag24
ag21
ag19
ag9
ag2
ag24
ag3
aS'.'
ag2
ag24
ag13
ag10
ag24
ag20
ag18
ag13
aS'.'
ag14
ag24
ag5
ag15
ag24
ag16
ag21
ag11
aS'.'
ag14
ag21
ag15
ag24
ag23
ag19
ag24
ag3
aS'.'
ag18
ag24
ag8
ag24
ag7
ag20
ag23
ag2
aS'.'
ag15
ag24
ag22
ag10
ag24
ag6
ag21
ag16
aS'.'
ag2
ag24
ag22
ag10
ag24
ag7
ag16
ag18
aS'.'
ag2
ag24
ag10
ag24
ag9
ag20
ag13
ag8
aS'.'
ag18
ag24
ag13
ag22
ag2
ag24
ag13
ag19
aS'.'
ag18
ag22
ag2
ag24
ag13
ag2
ag24
ag16
aS'.'
ag10
ag24
ag5
ag15
ag9
ag11
ag24
ag5
aS'.'
ag2
ag24
ag8
ag24
ag9
ag20
ag16
ag10
aS'.'
ag11
ag24
ag12
ag9
ag15
ag24
ag10
ag20
aS'.'
ag2
ag24
ag16
ag14
ag24
ag9
ag13
ag2
aS'.'
ag19
ag24
ag13
ag19
ag24
ag22
ag4
ag3
aS'.'
ag18
ag24
ag16
ag14
ag24
ag6
ag21
ag17
aS'.'
ag10
ag24
ag21
ag15
ag24
ag23
ag19
ag9
aS'.'
ag15
ag24
ag16
ag8
ag24
ag9
ag13
ag14
aS'.'
ag10
ag24
ag9
ag10
ag24
ag2
ag22
ag5
aS'.'
ag19
ag13
ag10
ag24
ag9
ag14
ag24
ag12
aS'.'
ag15
ag16
ag8
ag24
ag5
ag8
ag24
ag12
aS'.'
ag2
ag24
ag11
ag24
ag9
ag21
ag23
ag14
aS'.'
ag8
ag24
ag7
ag5
ag2
ag24
ag10
ag20
aS'.'
ag2
ag23
ag8
ag24
ag14
ag24
ag12
ag20
aS'.'
ag8
ag5
ag11
ag24
ag18
ag24
ag16
ag23
aS'.'
ag8
ag24
ag8
ag24
ag4
ag20
ag20
ag9
aS'.'
ag8
ag21
ag10
ag24
ag20
ag10
ag24
ag9
aS'.'
ag10
ag24
ag12
ag5
ag11
ag24
ag21
ag11
aS'.'
ag6
ag9
ag19
ag24
ag13
ag8
ag24
ag12
aS'.'
ag14
ag5
ag14
ag24
ag11
ag24
ag5
ag21
aS'.'
ag8
ag21
ag10
ag24
ag19
ag24
ag13
ag23
aS'.'
ag15
ag24
ag8
ag24
ag9
ag19
ag20
ag16
aS'.'
ag14
ag21
ag18
ag24
ag16
ag18
ag24
ag13
aS'.'
ag15
ag24
ag22
ag11
ag24
ag21
ag4
ag16
aS'.'
ag6
ag20
ag2
ag24
ag22
ag15
ag24
ag16
aS'.'
ag2
ag24
ag22
ag15
ag24
ag13
ag15
ag16
aS'.'
ag19
ag24
ag23
ag11
ag24
ag12
ag13
ag10
aS'.'
ag18
ag24
ag22
ag18
ag24
ag3
ag22
ag4
aS'.'
ag2
ag24
ag23
ag8
ag24
ag9
ag13
ag15
aS'.'
ag11
ag24
ag12
ag21
ag15
ag24
ag2
ag22
aS'.'
ag19
ag24
ag13
ag14
ag24
ag10
ag20
ag16
aS'.'
ag18
ag24
ag8
ag24
ag20
ag2
ag21
ag16
aS'.'
ag11
ag24
ag2
ag23
ag21
ag8
ag24
ag5
aS'.'
ag14
ag24
ag18
ag22
ag9
ag2
ag24
ag13
aS'.'
ag2
ag24
ag3
ag23
ag2
ag24
ag13
ag11
aS'.'
ag11
ag24
ag7
ag5
ag2
ag24
ag22
ag8
aS'.'
a.