(lp1
(lp2
S'John'
p3
aS'walks'
p4
aS'.'
aa(lp5
g3
aS'lives'
p6
aS'.'
aa(lp7
g3
aS'hits'
p8
ag3
aS'.'
aa(lp9
g3
ag8
aS'Mary'
p10
aS'.'
aa(lp11
g3
ag8
aS'boy'
p12
aS'.'
aa(lp13
g3
ag8
aS'girl'
p14
aS'.'
aa(lp15
g3
ag8
aS'cat'
p16
aS'.'
aa(lp17
g3
ag8
aS'dog'
p18
aS'.'
aa(lp19
g3
ag8
aS'boys'
p20
aS'.'
aa(lp21
g3
ag8
aS'girls'
p22
aS'.'
aa(lp23
g3
ag8
aS'cats'
p24
aS'.'
aa(lp25
g3
ag8
aS'dogs'
p26
aS'.'
aa(lp27
g3
aS'feeds'
p28
ag3
aS'.'
aa(lp29
g3
ag28
ag10
aS'.'
aa(lp30
g3
ag28
ag12
aS'.'
aa(lp31
g3
ag28
ag14
aS'.'
aa(lp32
g3
ag28
ag16
aS'.'
aa(lp33
g3
ag28
ag18
aS'.'
aa(lp34
g3
ag28
ag20
aS'.'
aa(lp35
g3
ag28
ag22
aS'.'
aa(lp36
g3
ag28
ag24
aS'.'
aa(lp37
g3
ag28
ag26
aS'.'
aa(lp38
g3
aS'sees'
p39
aS'.'
aa(lp40
g3
aS'hears'
p41
aS'.'
aa(lp42
g3
ag39
ag3
aS'.'
aa(lp43
g3
ag39
ag10
aS'.'
aa(lp44
g3
ag39
ag12
aS'.'
aa(lp45
g3
ag39
ag14
aS'.'
aa(lp46
g3
ag39
ag16
aS'.'
aa(lp47
g3
ag39
ag18
aS'.'
aa(lp48
g3
ag39
ag20
aS'.'
aa(lp49
g3
ag39
ag22
aS'.'
aa(lp50
g3
ag39
ag24
aS'.'
aa(lp51
g3
ag39
ag26
aS'.'
aa(lp52
g3
ag41
ag3
aS'.'
aa(lp53
g3
ag41
ag10
aS'.'
aa(lp54
g3
ag41
ag12
aS'.'
aa(lp55
g3
ag41
ag14
aS'.'
aa(lp56
g3
ag41
ag16
aS'.'
aa(lp57
g3
ag41
ag18
aS'.'
aa(lp58
g3
ag41
ag20
aS'.'
aa(lp59
g3
ag41
ag22
aS'.'
aa(lp60
g3
ag41
ag24
aS'.'
aa(lp61
g3
ag41
ag26
aS'.'
aa(lp62
g10
ag4
aS'.'
aa(lp63
g10
ag6
aS'.'
aa(lp64
g10
ag8
ag3
aS'.'
aa(lp65
g10
ag8
ag10
aS'.'
aa(lp66
g10
ag8
ag12
aS'.'
aa(lp67
g10
ag8
ag14
aS'.'
aa(lp68
g10
ag8
ag16
aS'.'
aa(lp69
g10
ag8
ag18
aS'.'
aa(lp70
g10
ag8
ag20
aS'.'
aa(lp71
g10
ag8
ag22
aS'.'
aa(lp72
g10
ag8
ag24
aS'.'
aa(lp73
g10
ag8
ag26
aS'.'
aa(lp74
g10
ag28
ag3
aS'.'
aa(lp75
g10
ag28
ag10
aS'.'
aa(lp76
g10
ag28
ag12
aS'.'
aa(lp77
g10
ag28
ag14
aS'.'
aa(lp78
g10
ag28
ag16
aS'.'
aa(lp79
g10
ag28
ag18
aS'.'
aa(lp80
g10
ag28
ag20
aS'.'
aa(lp81
g10
ag28
ag22
aS'.'
aa(lp82
g10
ag28
ag24
aS'.'
aa(lp83
g10
ag28
ag26
aS'.'
aa(lp84
g10
ag39
aS'.'
aa(lp85
g10
ag41
aS'.'
aa(lp86
g10
ag39
ag3
aS'.'
aa(lp87
g10
ag39
ag10
aS'.'
aa(lp88
g10
ag39
ag12
aS'.'
aa(lp89
g10
ag39
ag14
aS'.'
aa(lp90
g10
ag39
ag16
aS'.'
aa(lp91
g10
ag39
ag18
aS'.'
aa(lp92
g10
ag39
ag20
aS'.'
aa(lp93
g10
ag39
ag22
aS'.'
aa(lp94
g10
ag39
ag24
aS'.'
aa(lp95
g10
ag39
ag26
aS'.'
aa(lp96
g10
ag41
ag3
aS'.'
aa(lp97
g10
ag41
ag10
aS'.'
aa(lp98
g10
ag41
ag12
aS'.'
aa(lp99
g10
ag41
ag14
aS'.'
aa(lp100
g10
ag41
ag16
aS'.'
aa(lp101
g10
ag41
ag18
aS'.'
aa(lp102
g10
ag41
ag20
aS'.'
aa(lp103
g10
ag41
ag22
aS'.'
aa(lp104
g10
ag41
ag24
aS'.'
aa(lp105
g10
ag41
ag26
aS'.'
aa(lp106
g12
ag4
aS'.'
aa(lp107
g12
ag6
aS'.'
aa(lp108
g12
ag8
ag3
aS'.'
aa(lp109
g12
ag8
ag10
aS'.'
aa(lp110
g12
ag8
ag12
aS'.'
aa(lp111
g12
ag8
ag14
aS'.'
aa(lp112
g12
ag8
ag16
aS'.'
aa(lp113
g12
ag8
ag18
aS'.'
aa(lp114
g12
ag8
ag20
aS'.'
aa(lp115
g12
ag8
ag22
aS'.'
aa(lp116
g12
ag8
ag24
aS'.'
aa(lp117
g12
ag8
ag26
aS'.'
aa(lp118
g12
ag28
ag3
aS'.'
aa(lp119
g12
ag28
ag10
aS'.'
aa(lp120
g12
ag28
ag12
aS'.'
aa(lp121
g12
ag28
ag14
aS'.'
aa(lp122
g12
ag28
ag16
aS'.'
aa(lp123
g12
ag28
ag18
aS'.'
aa(lp124
g12
ag28
ag20
aS'.'
aa(lp125
g12
ag28
ag22
aS'.'
aa(lp126
g12
ag28
ag24
aS'.'
aa(lp127
g12
ag28
ag26
aS'.'
aa(lp128
g12
ag39
aS'.'
aa(lp129
g12
ag41
aS'.'
aa(lp130
g12
ag39
ag3
aS'.'
aa(lp131
g12
ag39
ag10
aS'.'
aa(lp132
g12
ag39
ag12
aS'.'
aa(lp133
g12
ag39
ag14
aS'.'
aa(lp134
g12
ag39
ag16
aS'.'
aa(lp135
g12
ag39
ag18
aS'.'
aa(lp136
g12
ag39
ag20
aS'.'
aa(lp137
g12
ag39
ag22
aS'.'
aa(lp138
g12
ag39
ag24
aS'.'
aa(lp139
g12
ag39
ag26
aS'.'
aa(lp140
g12
ag41
ag3
aS'.'
aa(lp141
g12
ag41
ag10
aS'.'
aa(lp142
g12
ag41
ag12
aS'.'
aa(lp143
g12
ag41
ag14
aS'.'
aa(lp144
g12
ag41
ag16
aS'.'
aa(lp145
g12
ag41
ag18
aS'.'
aa(lp146
g12
ag41
ag20
aS'.'
aa(lp147
g12
ag41
ag22
aS'.'
aa(lp148
g12
ag41
ag24
aS'.'
aa(lp149
g12
ag41
ag26
aS'.'
aa(lp150
g14
ag4
aS'.'
aa(lp151
g14
ag6
aS'.'
aa(lp152
g14
ag8
ag3
aS'.'
aa(lp153
g14
ag8
ag10
aS'.'
aa(lp154
g14
ag8
ag12
aS'.'
aa(lp155
g14
ag8
ag14
aS'.'
aa(lp156
g14
ag8
ag16
aS'.'
aa(lp157
g14
ag8
ag18
aS'.'
aa(lp158
g14
ag8
ag20
aS'.'
aa(lp159
g14
ag8
ag22
aS'.'
aa(lp160
g14
ag8
ag24
aS'.'
aa(lp161
g14
ag8
ag26
aS'.'
aa(lp162
g14
ag28
ag3
aS'.'
aa(lp163
g14
ag28
ag10
aS'.'
aa(lp164
g14
ag28
ag12
aS'.'
aa(lp165
g14
ag28
ag14
aS'.'
aa(lp166
g14
ag28
ag16
aS'.'
aa(lp167
g14
ag28
ag18
aS'.'
aa(lp168
g14
ag28
ag20
aS'.'
aa(lp169
g14
ag28
ag22
aS'.'
aa(lp170
g14
ag28
ag24
aS'.'
aa(lp171
g14
ag28
ag26
aS'.'
aa(lp172
g14
ag39
aS'.'
aa(lp173
g14
ag41
aS'.'
aa(lp174
g14
ag39
ag3
aS'.'
aa(lp175
g14
ag39
ag10
aS'.'
aa(lp176
g14
ag39
ag12
aS'.'
aa(lp177
g14
ag39
ag14
aS'.'
aa(lp178
g14
ag39
ag16
aS'.'
aa(lp179
g14
ag39
ag18
aS'.'
aa(lp180
g14
ag39
ag20
aS'.'
aa(lp181
g14
ag39
ag22
aS'.'
aa(lp182
g14
ag39
ag24
aS'.'
aa(lp183
g14
ag39
ag26
aS'.'
aa(lp184
g14
ag41
ag3
aS'.'
aa(lp185
g14
ag41
ag10
aS'.'
aa(lp186
g14
ag41
ag12
aS'.'
aa(lp187
g14
ag41
ag14
aS'.'
aa(lp188
g14
ag41
ag16
aS'.'
aa(lp189
g14
ag41
ag18
aS'.'
aa(lp190
g14
ag41
ag20
aS'.'
aa(lp191
g14
ag41
ag22
aS'.'
aa(lp192
g14
ag41
ag24
aS'.'
aa(lp193
g14
ag41
ag26
aS'.'
aa(lp194
g16
ag4
aS'.'
aa(lp195
g16
ag6
aS'.'
aa(lp196
g16
ag8
ag3
aS'.'
aa(lp197
g16
ag8
ag10
aS'.'
aa(lp198
g16
ag8
ag12
aS'.'
aa(lp199
g16
ag8
ag14
aS'.'
aa(lp200
g16
ag8
ag16
aS'.'
aa(lp201
g16
ag8
ag18
aS'.'
aa(lp202
g16
ag8
ag20
aS'.'
aa(lp203
g16
ag8
ag22
aS'.'
aa(lp204
g16
ag8
ag24
aS'.'
aa(lp205
g16
ag8
ag26
aS'.'
aa(lp206
g16
ag28
ag3
aS'.'
aa(lp207
g16
ag28
ag10
aS'.'
aa(lp208
g16
ag28
ag12
aS'.'
aa(lp209
g16
ag28
ag14
aS'.'
aa(lp210
g16
ag28
ag16
aS'.'
aa(lp211
g16
ag28
ag18
aS'.'
aa(lp212
g16
ag28
ag20
aS'.'
aa(lp213
g16
ag28
ag22
aS'.'
aa(lp214
g16
ag28
ag24
aS'.'
aa(lp215
g16
ag28
ag26
aS'.'
aa(lp216
g16
ag39
aS'.'
aa(lp217
g16
ag41
aS'.'
aa(lp218
g16
ag39
ag3
aS'.'
aa(lp219
g16
ag39
ag10
aS'.'
aa(lp220
g16
ag39
ag12
aS'.'
aa(lp221
g16
ag39
ag14
aS'.'
aa(lp222
g16
ag39
ag16
aS'.'
aa(lp223
g16
ag39
ag18
aS'.'
aa(lp224
g16
ag39
ag20
aS'.'
aa(lp225
g16
ag39
ag22
aS'.'
aa(lp226
g16
ag39
ag24
aS'.'
aa(lp227
g16
ag39
ag26
aS'.'
aa(lp228
g16
ag41
ag3
aS'.'
aa(lp229
g16
ag41
ag10
aS'.'
aa(lp230
g16
ag41
ag12
aS'.'
aa(lp231
g16
ag41
ag14
aS'.'
aa(lp232
g16
ag41
ag16
aS'.'
aa(lp233
g16
ag41
ag18
aS'.'
aa(lp234
g16
ag41
ag20
aS'.'
aa(lp235
g16
ag41
ag22
aS'.'
aa(lp236
g16
ag41
ag24
aS'.'
aa(lp237
g16
ag41
ag26
aS'.'
aa(lp238
g18
ag4
aS'.'
aa(lp239
g18
ag6
aS'.'
aa(lp240
g18
ag8
ag3
aS'.'
aa(lp241
g18
ag8
ag10
aS'.'
aa(lp242
g18
ag8
ag12
aS'.'
aa(lp243
g18
ag8
ag14
aS'.'
aa(lp244
g18
ag8
ag16
aS'.'
aa(lp245
g18
ag8
ag18
aS'.'
aa(lp246
g18
ag8
ag20
aS'.'
aa(lp247
g18
ag8
ag22
aS'.'
aa(lp248
g18
ag8
ag24
aS'.'
aa(lp249
g18
ag8
ag26
aS'.'
aa(lp250
g18
ag28
ag3
aS'.'
aa(lp251
g18
ag28
ag10
aS'.'
aa(lp252
g18
ag28
ag12
aS'.'
aa(lp253
g18
ag28
ag14
aS'.'
aa(lp254
g18
ag28
ag16
aS'.'
aa(lp255
g18
ag28
ag18
aS'.'
aa(lp256
g18
ag28
ag20
aS'.'
aa(lp257
g18
ag28
ag22
aS'.'
aa(lp258
g18
ag28
ag24
aS'.'
aa(lp259
g18
ag28
ag26
aS'.'
aa(lp260
g18
ag39
aS'.'
aa(lp261
g18
ag41
aS'.'
aa(lp262
g18
ag39
ag3
aS'.'
aa(lp263
g18
ag39
ag10
aS'.'
aa(lp264
g18
ag39
ag12
aS'.'
aa(lp265
g18
ag39
ag14
aS'.'
aa(lp266
g18
ag39
ag16
aS'.'
aa(lp267
g18
ag39
ag18
aS'.'
aa(lp268
g18
ag39
ag20
aS'.'
aa(lp269
g18
ag39
ag22
aS'.'
aa(lp270
g18
ag39
ag24
aS'.'
aa(lp271
g18
ag39
ag26
aS'.'
aa(lp272
g18
ag41
ag3
aS'.'
aa(lp273
g18
ag41
ag10
aS'.'
aa(lp274
g18
ag41
ag12
aS'.'
aa(lp275
g18
ag41
ag14
aS'.'
aa(lp276
g18
ag41
ag16
aS'.'
aa(lp277
g18
ag41
ag18
aS'.'
aa(lp278
g18
ag41
ag20
aS'.'
aa(lp279
g18
ag41
ag22
aS'.'
aa(lp280
g18
ag41
ag24
aS'.'
aa(lp281
g18
ag41
ag26
aS'.'
aa(lp282
g12
aS'who'
p283
ag4
ag4
aS'.'
aa(lp284
g12
ag283
ag4
ag6
aS'.'
aa(lp285
g12
ag283
ag4
ag39
aS'.'
aa(lp286
g12
ag283
ag4
ag41
aS'.'
aa(lp287
g12
ag283
ag6
ag4
aS'.'
aa(lp288
g12
ag283
ag6
ag6
aS'.'
aa(lp289
g12
ag283
ag6
ag39
aS'.'
aa(lp290
g12
ag283
ag6
ag41
aS'.'
aa(lp291
g12
ag283
ag39
ag4
aS'.'
aa(lp292
g12
ag283
ag39
ag6
aS'.'
aa(lp293
g12
ag283
ag39
ag39
aS'.'
aa(lp294
g12
ag283
ag39
ag41
aS'.'
aa(lp295
g12
ag283
ag41
ag4
aS'.'
aa(lp296
g12
ag283
ag41
ag6
aS'.'
aa(lp297
g12
ag283
ag41
ag39
aS'.'
aa(lp298
g12
ag283
ag41
ag41
aS'.'
aa(lp299
g14
ag283
ag4
ag4
aS'.'
aa(lp300
g14
ag283
ag4
ag6
aS'.'
aa(lp301
g14
ag283
ag4
ag39
aS'.'
aa(lp302
g14
ag283
ag4
ag41
aS'.'
aa(lp303
g14
ag283
ag6
ag4
aS'.'
aa(lp304
g14
ag283
ag6
ag6
aS'.'
aa(lp305
g14
ag283
ag6
ag39
aS'.'
aa(lp306
g14
ag283
ag6
ag41
aS'.'
aa(lp307
g14
ag283
ag39
ag4
aS'.'
aa(lp308
g14
ag283
ag39
ag6
aS'.'
aa(lp309
g14
ag283
ag39
ag39
aS'.'
aa(lp310
g14
ag283
ag39
ag41
aS'.'
aa(lp311
g14
ag283
ag41
ag4
aS'.'
aa(lp312
g14
ag283
ag41
ag6
aS'.'
aa(lp313
g14
ag283
ag41
ag39
aS'.'
aa(lp314
g14
ag283
ag41
ag41
aS'.'
aa(lp315
g16
ag283
ag4
ag4
aS'.'
aa(lp316
g16
ag283
ag4
ag6
aS'.'
aa(lp317
g16
ag283
ag4
ag39
aS'.'
aa(lp318
g16
ag283
ag4
ag41
aS'.'
aa(lp319
g16
ag283
ag6
ag4
aS'.'
aa(lp320
g16
ag283
ag6
ag6
aS'.'
aa(lp321
g16
ag283
ag6
ag39
aS'.'
aa(lp322
g16
ag283
ag6
ag41
aS'.'
aa(lp323
g16
ag283
ag39
ag4
aS'.'
aa(lp324
g16
ag283
ag39
ag6
aS'.'
aa(lp325
g16
ag283
ag39
ag39
aS'.'
aa(lp326
g16
ag283
ag39
ag41
aS'.'
aa(lp327
g16
ag283
ag41
ag4
aS'.'
aa(lp328
g16
ag283
ag41
ag6
aS'.'
aa(lp329
g16
ag283
ag41
ag39
aS'.'
aa(lp330
g16
ag283
ag41
ag41
aS'.'
aa(lp331
g18
ag283
ag4
ag4
aS'.'
aa(lp332
g18
ag283
ag4
ag6
aS'.'
aa(lp333
g18
ag283
ag4
ag39
aS'.'
aa(lp334
g18
ag283
ag4
ag41
aS'.'
aa(lp335
g18
ag283
ag6
ag4
aS'.'
aa(lp336
g18
ag283
ag6
ag6
aS'.'
aa(lp337
g18
ag283
ag6
ag39
aS'.'
aa(lp338
g18
ag283
ag6
ag41
aS'.'
aa(lp339
g18
ag283
ag39
ag4
aS'.'
aa(lp340
g18
ag283
ag39
ag6
aS'.'
aa(lp341
g18
ag283
ag39
ag39
aS'.'
aa(lp342
g18
ag283
ag39
ag41
aS'.'
aa(lp343
g18
ag283
ag41
ag4
aS'.'
aa(lp344
g18
ag283
ag41
ag6
aS'.'
aa(lp345
g18
ag283
ag41
ag39
aS'.'
aa(lp346
g18
ag283
ag41
ag41
aS'.'
aa(lp347
g20
aS'walk'
p348
aS'.'
aa(lp349
g20
aS'live'
p350
aS'.'
aa(lp351
g20
aS'hit'
p352
ag3
aS'.'
aa(lp353
g20
ag352
ag10
aS'.'
aa(lp354
g20
ag352
ag12
aS'.'
aa(lp355
g20
ag352
ag14
aS'.'
aa(lp356
g20
ag352
ag16
aS'.'
aa(lp357
g20
ag352
ag18
aS'.'
aa(lp358
g20
ag352
ag20
aS'.'
aa(lp359
g20
ag352
ag22
aS'.'
aa(lp360
g20
ag352
ag24
aS'.'
aa(lp361
g20
ag352
ag26
aS'.'
aa(lp362
g20
aS'feed'
p363
ag3
aS'.'
aa(lp364
g20
ag363
ag10
aS'.'
aa(lp365
g20
ag363
ag12
aS'.'
aa(lp366
g20
ag363
ag14
aS'.'
aa(lp367
g20
ag363
ag16
aS'.'
aa(lp368
g20
ag363
ag18
aS'.'
aa(lp369
g20
ag363
ag20
aS'.'
aa(lp370
g20
ag363
ag22
aS'.'
aa(lp371
g20
ag363
ag24
aS'.'
aa(lp372
g20
ag363
ag26
aS'.'
aa(lp373
g20
aS'see'
p374
aS'.'
aa(lp375
g20
aS'hear'
p376
aS'.'
aa(lp377
g20
ag374
ag3
aS'.'
aa(lp378
g20
ag374
ag10
aS'.'
aa(lp379
g20
ag374
ag12
aS'.'
aa(lp380
g20
ag374
ag14
aS'.'
aa(lp381
g20
ag374
ag16
aS'.'
aa(lp382
g20
ag374
ag18
aS'.'
aa(lp383
g20
ag374
ag20
aS'.'
aa(lp384
g20
ag374
ag22
aS'.'
aa(lp385
g20
ag374
ag24
aS'.'
aa(lp386
g20
ag374
ag26
aS'.'
aa(lp387
g20
ag376
ag3
aS'.'
aa(lp388
g20
ag376
ag10
aS'.'
aa(lp389
g20
ag376
ag12
aS'.'
aa(lp390
g20
ag376
ag14
aS'.'
aa(lp391
g20
ag376
ag16
aS'.'
aa(lp392
g20
ag376
ag18
aS'.'
aa(lp393
g20
ag376
ag20
aS'.'
aa(lp394
g20
ag376
ag22
aS'.'
aa(lp395
g20
ag376
ag24
aS'.'
aa(lp396
g20
ag376
ag26
aS'.'
aa(lp397
g22
ag348
aS'.'
aa(lp398
g22
ag350
aS'.'
aa(lp399
g22
ag352
ag3
aS'.'
aa(lp400
g22
ag352
ag10
aS'.'
aa(lp401
g22
ag352
ag12
aS'.'
aa(lp402
g22
ag352
ag14
aS'.'
aa(lp403
g22
ag352
ag16
aS'.'
aa(lp404
g22
ag352
ag18
aS'.'
aa(lp405
g22
ag352
ag20
aS'.'
aa(lp406
g22
ag352
ag22
aS'.'
aa(lp407
g22
ag352
ag24
aS'.'
aa(lp408
g22
ag352
ag26
aS'.'
aa(lp409
g22
ag363
ag3
aS'.'
aa(lp410
g22
ag363
ag10
aS'.'
aa(lp411
g22
ag363
ag12
aS'.'
aa(lp412
g22
ag363
ag14
aS'.'
aa(lp413
g22
ag363
ag16
aS'.'
aa(lp414
g22
ag363
ag18
aS'.'
aa(lp415
g22
ag363
ag20
aS'.'
aa(lp416
g22
ag363
ag22
aS'.'
aa(lp417
g22
ag363
ag24
aS'.'
aa(lp418
g22
ag363
ag26
aS'.'
aa(lp419
g22
ag374
aS'.'
aa(lp420
g22
ag376
aS'.'
aa(lp421
g22
ag374
ag3
aS'.'
aa(lp422
g22
ag374
ag10
aS'.'
aa(lp423
g22
ag374
ag12
aS'.'
aa(lp424
g22
ag374
ag14
aS'.'
aa(lp425
g22
ag374
ag16
aS'.'
aa(lp426
g22
ag374
ag18
aS'.'
aa(lp427
g22
ag374
ag20
aS'.'
aa(lp428
g22
ag374
ag22
aS'.'
aa(lp429
g22
ag374
ag24
aS'.'
aa(lp430
g22
ag374
ag26
aS'.'
aa(lp431
g22
ag376
ag3
aS'.'
aa(lp432
g22
ag376
ag10
aS'.'
aa(lp433
g22
ag376
ag12
aS'.'
aa(lp434
g22
ag376
ag14
aS'.'
aa(lp435
g22
ag376
ag16
aS'.'
aa(lp436
g22
ag376
ag18
aS'.'
aa(lp437
g22
ag376
ag20
aS'.'
aa(lp438
g22
ag376
ag22
aS'.'
aa(lp439
g22
ag376
ag24
aS'.'
aa(lp440
g22
ag376
ag26
aS'.'
aa(lp441
g24
ag348
aS'.'
aa(lp442
g24
ag350
aS'.'
aa(lp443
g24
ag352
ag3
aS'.'
aa(lp444
g24
ag352
ag10
aS'.'
aa(lp445
g24
ag352
ag12
aS'.'
aa(lp446
g24
ag352
ag14
aS'.'
aa(lp447
g24
ag352
ag16
aS'.'
aa(lp448
g24
ag352
ag18
aS'.'
aa(lp449
g24
ag352
ag20
aS'.'
aa(lp450
g24
ag352
ag22
aS'.'
aa(lp451
g24
ag352
ag24
aS'.'
aa(lp452
g24
ag352
ag26
aS'.'
aa(lp453
g24
ag363
ag3
aS'.'
aa(lp454
g24
ag363
ag10
aS'.'
aa(lp455
g24
ag363
ag12
aS'.'
aa(lp456
g24
ag363
ag14
aS'.'
aa(lp457
g24
ag363
ag16
aS'.'
aa(lp458
g24
ag363
ag18
aS'.'
aa(lp459
g24
ag363
ag20
aS'.'
aa(lp460
g24
ag363
ag22
aS'.'
aa(lp461
g24
ag363
ag24
aS'.'
aa(lp462
g24
ag363
ag26
aS'.'
aa(lp463
g24
ag374
aS'.'
aa(lp464
g24
ag376
aS'.'
aa(lp465
g24
ag374
ag3
aS'.'
aa(lp466
g24
ag374
ag10
aS'.'
aa(lp467
g24
ag374
ag12
aS'.'
aa(lp468
g24
ag374
ag14
aS'.'
aa(lp469
g24
ag374
ag16
aS'.'
aa(lp470
g24
ag374
ag18
aS'.'
aa(lp471
g24
ag374
ag20
aS'.'
aa(lp472
g24
ag374
ag22
aS'.'
aa(lp473
g24
ag374
ag24
aS'.'
aa(lp474
g24
ag374
ag26
aS'.'
aa(lp475
g24
ag376
ag3
aS'.'
aa(lp476
g24
ag376
ag10
aS'.'
aa(lp477
g24
ag376
ag12
aS'.'
aa(lp478
g24
ag376
ag14
aS'.'
aa(lp479
g24
ag376
ag16
aS'.'
aa(lp480
g24
ag376
ag18
aS'.'
aa(lp481
g24
ag376
ag20
aS'.'
aa(lp482
g24
ag376
ag22
aS'.'
aa(lp483
g24
ag376
ag24
aS'.'
aa(lp484
g24
ag376
ag26
aS'.'
aa(lp485
g26
ag348
aS'.'
aa(lp486
g26
ag350
aS'.'
aa(lp487
g26
ag352
ag3
aS'.'
aa(lp488
g26
ag352
ag10
aS'.'
aa(lp489
g26
ag352
ag12
aS'.'
aa(lp490
g26
ag352
ag14
aS'.'
aa(lp491
g26
ag352
ag16
aS'.'
aa(lp492
g26
ag352
ag18
aS'.'
aa(lp493
g26
ag352
ag20
aS'.'
aa(lp494
g26
ag352
ag22
aS'.'
aa(lp495
g26
ag352
ag24
aS'.'
aa(lp496
g26
ag352
ag26
aS'.'
aa(lp497
g26
ag363
ag3
aS'.'
aa(lp498
g26
ag363
ag10
aS'.'
aa(lp499
g26
ag363
ag12
aS'.'
aa(lp500
g26
ag363
ag14
aS'.'
aa(lp501
g26
ag363
ag16
aS'.'
aa(lp502
g26
ag363
ag18
aS'.'
aa(lp503
g26
ag363
ag20
aS'.'
aa(lp504
g26
ag363
ag22
aS'.'
aa(lp505
g26
ag363
ag24
aS'.'
aa(lp506
g26
ag363
ag26
aS'.'
aa(lp507
g26
ag374
aS'.'
aa(lp508
g26
ag376
aS'.'
aa(lp509
g26
ag374
ag3
aS'.'
aa(lp510
g26
ag374
ag10
aS'.'
aa(lp511
g26
ag374
ag12
aS'.'
aa(lp512
g26
ag374
ag14
aS'.'
aa(lp513
g26
ag374
ag16
aS'.'
aa(lp514
g26
ag374
ag18
aS'.'
aa(lp515
g26
ag374
ag20
aS'.'
aa(lp516
g26
ag374
ag22
aS'.'
aa(lp517
g26
ag374
ag24
aS'.'
aa(lp518
g26
ag374
ag26
aS'.'
aa(lp519
g26
ag376
ag3
aS'.'
aa(lp520
g26
ag376
ag10
aS'.'
aa(lp521
g26
ag376
ag12
aS'.'
aa(lp522
g26
ag376
ag14
aS'.'
aa(lp523
g26
ag376
ag16
aS'.'
aa(lp524
g26
ag376
ag18
aS'.'
aa(lp525
g26
ag376
ag20
aS'.'
aa(lp526
g26
ag376
ag22
aS'.'
aa(lp527
g26
ag376
ag24
aS'.'
aa(lp528
g26
ag376
ag26
aS'.'
aa(lp529
g20
ag283
ag348
ag348
aS'.'
aa(lp530
g20
ag283
ag348
ag350
aS'.'
aa(lp531
g20
ag283
ag348
ag374
aS'.'
aa(lp532
g20
ag283
ag348
ag376
aS'.'
aa(lp533
g20
ag283
ag350
ag348
aS'.'
aa(lp534
g20
ag283
ag350
ag350
aS'.'
aa(lp535
g20
ag283
ag350
ag374
aS'.'
aa(lp536
g20
ag283
ag350
ag376
aS'.'
aa(lp537
g20
ag283
ag374
ag348
aS'.'
aa(lp538
g20
ag283
ag374
ag350
aS'.'
aa(lp539
g20
ag283
ag374
ag374
aS'.'
aa(lp540
g20
ag283
ag374
ag376
aS'.'
aa(lp541
g20
ag283
ag376
ag348
aS'.'
aa(lp542
g20
ag283
ag376
ag350
aS'.'
aa(lp543
g20
ag283
ag376
ag374
aS'.'
aa(lp544
g20
ag283
ag376
ag376
aS'.'
aa(lp545
g22
ag283
ag348
ag348
aS'.'
aa(lp546
g22
ag283
ag348
ag350
aS'.'
aa(lp547
g22
ag283
ag348
ag374
aS'.'
aa(lp548
g22
ag283
ag348
ag376
aS'.'
aa(lp549
g22
ag283
ag350
ag348
aS'.'
aa(lp550
g22
ag283
ag350
ag350
aS'.'
aa(lp551
g22
ag283
ag350
ag374
aS'.'
aa(lp552
g22
ag283
ag350
ag376
aS'.'
aa(lp553
g22
ag283
ag374
ag348
aS'.'
aa(lp554
g22
ag283
ag374
ag350
aS'.'
aa(lp555
g22
ag283
ag374
ag374
aS'.'
aa(lp556
g22
ag283
ag374
ag376
aS'.'
aa(lp557
g22
ag283
ag376
ag348
aS'.'
aa(lp558
g22
ag283
ag376
ag350
aS'.'
aa(lp559
g22
ag283
ag376
ag374
aS'.'
aa(lp560
g22
ag283
ag376
ag376
aS'.'
aa(lp561
g24
ag283
ag348
ag348
aS'.'
aa(lp562
g24
ag283
ag348
ag350
aS'.'
aa(lp563
g24
ag283
ag348
ag374
aS'.'
aa(lp564
g24
ag283
ag348
ag376
aS'.'
aa(lp565
g24
ag283
ag350
ag348
aS'.'
aa(lp566
g24
ag283
ag350
ag350
aS'.'
aa(lp567
g24
ag283
ag350
ag374
aS'.'
aa(lp568
g24
ag283
ag350
ag376
aS'.'
aa(lp569
g24
ag283
ag374
ag348
aS'.'
aa(lp570
g24
ag283
ag374
ag350
aS'.'
aa(lp571
g24
ag283
ag374
ag374
aS'.'
aa(lp572
g24
ag283
ag374
ag376
aS'.'
aa(lp573
g24
ag283
ag376
ag348
aS'.'
aa(lp574
g24
ag283
ag376
ag350
aS'.'
aa(lp575
g24
ag283
ag376
ag374
aS'.'
aa(lp576
g24
ag283
ag376
ag376
aS'.'
aa(lp577
g26
ag283
ag348
ag348
aS'.'
aa(lp578
g26
ag283
ag348
ag350
aS'.'
aa(lp579
g26
ag283
ag348
ag374
aS'.'
aa(lp580
g26
ag283
ag348
ag376
aS'.'
aa(lp581
g26
ag283
ag350
ag348
aS'.'
aa(lp582
g26
ag283
ag350
ag350
aS'.'
aa(lp583
g26
ag283
ag350
ag374
aS'.'
aa(lp584
g26
ag283
ag350
ag376
aS'.'
aa(lp585
g26
ag283
ag374
ag348
aS'.'
aa(lp586
g26
ag283
ag374
ag350
aS'.'
aa(lp587
g26
ag283
ag374
ag374
aS'.'
aa(lp588
g26
ag283
ag374
ag376
aS'.'
aa(lp589
g26
ag283
ag376
ag348
aS'.'
aa(lp590
g26
ag283
ag376
ag350
aS'.'
aa(lp591
g26
ag283
ag376
ag374
aS'.'
aa(lp592
g26
ag283
ag376
ag376
aS'.'
aa.